	.text
	.file	"just_bc.6bksiek5-cgu.0"
	.p2align	4, 0x90         # -- Begin function _ZN36_$LT$T$u20$as$u20$core..any..Any$GT$7type_id17h3e94f3669ad6df0bE
	.type	_ZN36_$LT$T$u20$as$u20$core..any..Any$GT$7type_id17h3e94f3669ad6df0bE,@function
_ZN36_$LT$T$u20$as$u20$core..any..Any$GT$7type_id17h3e94f3669ad6df0bE: # @"_ZN36_$LT$T$u20$as$u20$core..any..Any$GT$7type_id17h3e94f3669ad6df0bE"
	.cfi_startproc
# %bb.0:                                # %start
	movabsq	$1229646359891580772, %rax # imm = 0x111094D970B09764
	retq
.Lfunc_end0:
	.size	_ZN36_$LT$T$u20$as$u20$core..any..Any$GT$7type_id17h3e94f3669ad6df0bE, .Lfunc_end0-_ZN36_$LT$T$u20$as$u20$core..any..Any$GT$7type_id17h3e94f3669ad6df0bE
	.cfi_endproc
                                        # -- End function
	.hidden	_ZN3std2rt10lang_start17h9a376649ad328233E # -- Begin function _ZN3std2rt10lang_start17h9a376649ad328233E
	.globl	_ZN3std2rt10lang_start17h9a376649ad328233E
	.p2align	4, 0x90
	.type	_ZN3std2rt10lang_start17h9a376649ad328233E,@function
_ZN3std2rt10lang_start17h9a376649ad328233E: # @_ZN3std2rt10lang_start17h9a376649ad328233E
.L_ZN3std2rt10lang_start17h9a376649ad328233E$local:
	.cfi_startproc
# %bb.0:                                # %start
	pushq	%rax
	.cfi_def_cfa_offset 16
	movq	%rdx, %rcx
	movq	%rsi, %rdx
	movq	%rdi, (%rsp)
	movq	%rsp, %rdi
	movl	$.Lvtable.0, %esi
	callq	*_ZN3std2rt19lang_start_internal17h14e7168ba039f170E@GOTPCREL(%rip)
	popq	%rcx
	.cfi_def_cfa_offset 8
	retq
.Lfunc_end1:
	.size	_ZN3std2rt10lang_start17h9a376649ad328233E, .Lfunc_end1-_ZN3std2rt10lang_start17h9a376649ad328233E
	.cfi_endproc
                                        # -- End function
	.p2align	4, 0x90         # -- Begin function _ZN3std2rt10lang_start28_$u7b$$u7b$closure$u7d$$u7d$17h0ea676343dfb611dE
	.type	_ZN3std2rt10lang_start28_$u7b$$u7b$closure$u7d$$u7d$17h0ea676343dfb611dE,@function
_ZN3std2rt10lang_start28_$u7b$$u7b$closure$u7d$$u7d$17h0ea676343dfb611dE: # @"_ZN3std2rt10lang_start28_$u7b$$u7b$closure$u7d$$u7d$17h0ea676343dfb611dE"
.Lfunc_begin0:
	.cfi_startproc
	.cfi_personality 3, rust_eh_personality
	.cfi_lsda 3, .Lexception0
# %bb.0:                                # %start
	pushq	%rbx
	.cfi_def_cfa_offset 16
	subq	$80, %rsp
	.cfi_def_cfa_offset 96
	.cfi_offset %rbx, -16
	callq	*(%rdi)
	testq	%rax, %rax
	je	.LBB2_1
# %bb.2:                                # %bb5.i
	movq	%rax, (%rsp)
	movq	%rdx, 8(%rsp)
	movq	%rsp, %rax
	movq	%rax, 16(%rsp)
	movq	$_ZN63_$LT$alloc..boxed..Box$LT$T$GT$$u20$as$u20$core..fmt..Debug$GT$3fmt17h5f6b5d1a7f049ffaE, 24(%rsp)
	movq	$.Lanon.112aa5216417f3e30cbfa40815f3b444.59, 32(%rsp)
	movq	$2, 40(%rsp)
	movq	$0, 48(%rsp)
	leaq	16(%rsp), %rax
	movq	%rax, 64(%rsp)
	movq	$1, 72(%rsp)
.Ltmp0:
	leaq	32(%rsp), %rdi
	callq	*_ZN3std2io5stdio7_eprint17h32bc25122c22ccfdE@GOTPCREL(%rip)
.Ltmp1:
# %bb.3:                                # %bb7.i.i
	movq	(%rsp), %rdi
	movq	8(%rsp), %rax
.Ltmp3:
	callq	*(%rax)
.Ltmp4:
# %bb.4:                                # %bb3.i.i10.i
	movq	8(%rsp), %rax
	movq	8(%rax), %rsi
	testq	%rsi, %rsi
	je	.LBB2_6
# %bb.5:                                # %bb4.i.i.i11.i
	movq	(%rsp), %rdi
	movq	16(%rax), %rdx
	callq	*__rust_dealloc@GOTPCREL(%rip)
.LBB2_6:                                # %"_ZN83_$LT$core..result..Result$LT$$u21$$C$E$GT$$u20$as$u20$std..process..Termination$GT$6report17h57b7ecb7ec2880dcE.exit.i"
	movl	$1, %eax
	jmp	.LBB2_7
.LBB2_1:
	xorl	%eax, %eax
.LBB2_7:                                # %"_ZN86_$LT$core..result..Result$LT$$LP$$RP$$C$E$GT$$u20$as$u20$std..process..Termination$GT$6report17h26cc0489eabbfa95E.exit"
	addq	$80, %rsp
	.cfi_def_cfa_offset 16
	popq	%rbx
	.cfi_def_cfa_offset 8
	retq
.LBB2_8:                                # %cleanup.i.i12.i
	.cfi_def_cfa_offset 96
.Ltmp5:
	movq	%rax, %rbx
	movq	(%rsp), %rdi
	movq	8(%rsp), %rsi
	callq	_ZN5alloc5alloc8box_free17h39766183111e1fbdE
	movq	%rbx, %rdi
	callq	_Unwind_Resume
.LBB2_9:                                # %cleanup.i.i
.Ltmp2:
	movq	%rax, %rbx
	movq	%rsp, %rdi
	callq	_ZN4core3ptr18real_drop_in_place17hb9548981e85bfaaeE
	movq	%rbx, %rdi
	callq	_Unwind_Resume
.Lfunc_end2:
	.size	_ZN3std2rt10lang_start28_$u7b$$u7b$closure$u7d$$u7d$17h0ea676343dfb611dE, .Lfunc_end2-_ZN3std2rt10lang_start28_$u7b$$u7b$closure$u7d$$u7d$17h0ea676343dfb611dE
	.cfi_endproc
	.section	.gcc_except_table,"a",@progbits
	.p2align	2
GCC_except_table2:
.Lexception0:
	.byte	255                     # @LPStart Encoding = omit
	.byte	255                     # @TType Encoding = omit
	.byte	1                       # Call site Encoding = uleb128
	.uleb128 .Lcst_end0-.Lcst_begin0
.Lcst_begin0:
	.uleb128 .Lfunc_begin0-.Lfunc_begin0 # >> Call Site 1 <<
	.uleb128 .Ltmp0-.Lfunc_begin0   #   Call between .Lfunc_begin0 and .Ltmp0
	.byte	0                       #     has no landing pad
	.byte	0                       #   On action: cleanup
	.uleb128 .Ltmp0-.Lfunc_begin0   # >> Call Site 2 <<
	.uleb128 .Ltmp1-.Ltmp0          #   Call between .Ltmp0 and .Ltmp1
	.uleb128 .Ltmp2-.Lfunc_begin0   #     jumps to .Ltmp2
	.byte	0                       #   On action: cleanup
	.uleb128 .Ltmp3-.Lfunc_begin0   # >> Call Site 3 <<
	.uleb128 .Ltmp4-.Ltmp3          #   Call between .Ltmp3 and .Ltmp4
	.uleb128 .Ltmp5-.Lfunc_begin0   #     jumps to .Ltmp5
	.byte	0                       #   On action: cleanup
	.uleb128 .Ltmp4-.Lfunc_begin0   # >> Call Site 4 <<
	.uleb128 .Lfunc_end2-.Ltmp4     #   Call between .Ltmp4 and .Lfunc_end2
	.byte	0                       #     has no landing pad
	.byte	0                       #   On action: cleanup
.Lcst_end0:
	.p2align	2
                                        # -- End function
	.text
	.p2align	4, 0x90         # -- Begin function _ZN3std5error5Error7type_id17h59d9d71ba629941fE
	.type	_ZN3std5error5Error7type_id17h59d9d71ba629941fE,@function
_ZN3std5error5Error7type_id17h59d9d71ba629941fE: # @_ZN3std5error5Error7type_id17h59d9d71ba629941fE
	.cfi_startproc
# %bb.0:                                # %start
	movabsq	$-2214285999057668664, %rax # imm = 0xE145469D9B0BF5C8
	retq
.Lfunc_end3:
	.size	_ZN3std5error5Error7type_id17h59d9d71ba629941fE, .Lfunc_end3-_ZN3std5error5Error7type_id17h59d9d71ba629941fE
	.cfi_endproc
                                        # -- End function
	.p2align	4, 0x90         # -- Begin function _ZN3std5error5Error9backtrace17he692434e154190d0E
	.type	_ZN3std5error5Error9backtrace17he692434e154190d0E,@function
_ZN3std5error5Error9backtrace17he692434e154190d0E: # @_ZN3std5error5Error9backtrace17he692434e154190d0E
	.cfi_startproc
# %bb.0:                                # %start
	xorl	%eax, %eax
	retq
.Lfunc_end4:
	.size	_ZN3std5error5Error9backtrace17he692434e154190d0E, .Lfunc_end4-_ZN3std5error5Error9backtrace17he692434e154190d0E
	.cfi_endproc
                                        # -- End function
	.p2align	4, 0x90         # -- Begin function _ZN3std6future21poll_with_tls_context17h885a604c3570a4afE
	.type	_ZN3std6future21poll_with_tls_context17h885a604c3570a4afE,@function
_ZN3std6future21poll_with_tls_context17h885a604c3570a4afE: # @_ZN3std6future21poll_with_tls_context17h885a604c3570a4afE
.Lfunc_begin1:
	.cfi_startproc
	.cfi_personality 3, rust_eh_personality
	.cfi_lsda 3, .Lexception1
# %bb.0:                                # %start
	pushq	%r14
	.cfi_def_cfa_offset 16
	pushq	%rbx
	.cfi_def_cfa_offset 24
	subq	$24, %rsp
	.cfi_def_cfa_offset 48
	.cfi_offset %rbx, -24
	.cfi_offset %r14, -16
	movq	%rsi, %rbx
	movq	%rdi, %r14
	callq	*_ZN3std6future6TLS_CX7__getit17hdaabf9d2770484c0E@GOTPCREL(%rip)
	testq	%rax, %rax
	je	.LBB5_7
# %bb.1:                                # %"_ZN3std6thread5local17LocalKey$LT$T$GT$4with17h77edca364093b8c6E.exit"
	movq	(%rax), %rdx
	movq	$0, (%rax)
	movq	%rdx, 16(%rsp)
	testq	%rdx, %rdx
	je	.LBB5_2
# %bb.4:                                # %bb5
	movq	(%rbx), %rsi
	movq	8(%rbx), %rcx
	movq	16(%rbx), %r8
.Ltmp6:
	movq	%r14, %rdi
	callq	*_ZN88_$LT$tokio..net..tcp..split..WriteHalf$u20$as$u20$tokio..io..async_write..AsyncWrite$GT$10poll_write17h58cb5b5072f3817bE@GOTPCREL(%rip)
.Ltmp7:
# %bb.5:                                # %bb6
	leaq	16(%rsp), %rdi
	callq	*_ZN64_$LT$std..future..SetOnDrop$u20$as$u20$core..ops..drop..Drop$GT$4drop17h024ba6850ad4d096E@GOTPCREL(%rip)
	addq	$24, %rsp
	.cfi_def_cfa_offset 24
	popq	%rbx
	.cfi_def_cfa_offset 16
	popq	%r14
	.cfi_def_cfa_offset 8
	retq
.LBB5_7:                                # %bb5.i.i
	.cfi_def_cfa_offset 48
	leaq	8(%rsp), %rdx
	movl	$.Lanon.112aa5216417f3e30cbfa40815f3b444.2, %edi
	movl	$70, %esi
	movl	$.Lvtable.3, %ecx
	callq	*_ZN4core6result13unwrap_failed17hca6a012bfa3eb903E@GOTPCREL(%rip)
.LBB5_2:                                # %bb2.i
.Ltmp8:
	movl	$.Lanon.112aa5216417f3e30cbfa40815f3b444.1, %edi
	movl	$100, %esi
	callq	*_ZN4core6option13expect_failed17h7475be656707bdc0E@GOTPCREL(%rip)
.Ltmp9:
# %bb.3:                                # %.noexc
.LBB5_6:                                # %cleanup
.Ltmp10:
	movq	%rax, %rbx
	leaq	16(%rsp), %rdi
	callq	_ZN4core3ptr18real_drop_in_place17h29f155998742d087E
	movq	%rbx, %rdi
	callq	_Unwind_Resume
.Lfunc_end5:
	.size	_ZN3std6future21poll_with_tls_context17h885a604c3570a4afE, .Lfunc_end5-_ZN3std6future21poll_with_tls_context17h885a604c3570a4afE
	.cfi_endproc
	.section	.gcc_except_table,"a",@progbits
	.p2align	2
GCC_except_table5:
.Lexception1:
	.byte	255                     # @LPStart Encoding = omit
	.byte	255                     # @TType Encoding = omit
	.byte	1                       # Call site Encoding = uleb128
	.uleb128 .Lcst_end1-.Lcst_begin1
.Lcst_begin1:
	.uleb128 .Lfunc_begin1-.Lfunc_begin1 # >> Call Site 1 <<
	.uleb128 .Ltmp6-.Lfunc_begin1   #   Call between .Lfunc_begin1 and .Ltmp6
	.byte	0                       #     has no landing pad
	.byte	0                       #   On action: cleanup
	.uleb128 .Ltmp6-.Lfunc_begin1   # >> Call Site 2 <<
	.uleb128 .Ltmp7-.Ltmp6          #   Call between .Ltmp6 and .Ltmp7
	.uleb128 .Ltmp10-.Lfunc_begin1  #     jumps to .Ltmp10
	.byte	0                       #   On action: cleanup
	.uleb128 .Ltmp7-.Lfunc_begin1   # >> Call Site 3 <<
	.uleb128 .Ltmp8-.Ltmp7          #   Call between .Ltmp7 and .Ltmp8
	.byte	0                       #     has no landing pad
	.byte	0                       #   On action: cleanup
	.uleb128 .Ltmp8-.Lfunc_begin1   # >> Call Site 4 <<
	.uleb128 .Ltmp9-.Ltmp8          #   Call between .Ltmp8 and .Ltmp9
	.uleb128 .Ltmp10-.Lfunc_begin1  #     jumps to .Ltmp10
	.byte	0                       #   On action: cleanup
	.uleb128 .Ltmp9-.Lfunc_begin1   # >> Call Site 5 <<
	.uleb128 .Lfunc_end5-.Ltmp9     #   Call between .Ltmp9 and .Lfunc_end5
	.byte	0                       #     has no landing pad
	.byte	0                       #   On action: cleanup
.Lcst_end1:
	.p2align	2
                                        # -- End function
	.text
	.p2align	4, 0x90         # -- Begin function _ZN3std9panicking11begin_panic17hebd941bf54afcd90E
	.type	_ZN3std9panicking11begin_panic17hebd941bf54afcd90E,@function
_ZN3std9panicking11begin_panic17hebd941bf54afcd90E: # @_ZN3std9panicking11begin_panic17hebd941bf54afcd90E
	.cfi_startproc
# %bb.0:                                # %bb2
	subq	$24, %rsp
	.cfi_def_cfa_offset 32
	movq	%rdx, %rcx
	movq	%rdi, 8(%rsp)
	movq	%rsi, 16(%rsp)
	leaq	8(%rsp), %rdi
	movl	$.Lvtable.2, %esi
	xorl	%edx, %edx
	callq	*_ZN3std9panicking20rust_panic_with_hook17h787d7f532b084b9aE@GOTPCREL(%rip)
.Lfunc_end6:
	.size	_ZN3std9panicking11begin_panic17hebd941bf54afcd90E, .Lfunc_end6-_ZN3std9panicking11begin_panic17hebd941bf54afcd90E
	.cfi_endproc
                                        # -- End function
	.p2align	4, 0x90         # -- Begin function _ZN3std9panicking3try7do_call17h0828aa63555b211dE
	.type	_ZN3std9panicking3try7do_call17h0828aa63555b211dE,@function
_ZN3std9panicking3try7do_call17h0828aa63555b211dE: # @_ZN3std9panicking3try7do_call17h0828aa63555b211dE
.Lfunc_begin2:
	.cfi_startproc
	.cfi_personality 3, rust_eh_personality
	.cfi_lsda 3, .Lexception2
# %bb.0:                                # %start
	pushq	%r14
	.cfi_def_cfa_offset 16
	pushq	%rbx
	.cfi_def_cfa_offset 24
	subq	$88, %rsp
	.cfi_def_cfa_offset 112
	.cfi_offset %rbx, -24
	.cfi_offset %r14, -16
	movq	(%rdi), %rcx
	movq	8(%rdi), %rax
	movq	(%rcx), %rbx
	movq	%rbx, 24(%rsp)
	movb	$0, 32(%rsp)
	cmpq	$0, (%rbx)
	jne	.LBB7_1
# %bb.3:                                # %bb15.i.i.i.i
	movq	%rdi, %r14
	movq	(%rax), %rdi
.Ltmp13:
	movl	$.Lanon.112aa5216417f3e30cbfa40815f3b444.35, %esi
	callq	*_ZN4core4task4wake8RawWaker3new17h3348ef682dfa8f58E@GOTPCREL(%rip)
.Ltmp14:
# %bb.4:                                # %.noexc5.i.i.i
	addq	$8, %rbx
	movq	%rax, 40(%rsp)
	movq	%rdx, 48(%rsp)
	leaq	40(%rsp), %rax
	movq	%rax, (%rsp)
.Ltmp15:
	movq	%rsp, %rsi
	movq	%rbx, %rdi
	callq	_ZN80_$LT$std..future..GenFuture$LT$T$GT$$u20$as$u20$core..future..future..Future$GT$4poll17he4a2e106d9378ec8E
.Ltmp16:
# %bb.5:                                # %"_ZN101_$LT$std..panic..AssertUnwindSafe$LT$F$GT$$u20$as$u20$core..ops..function..FnOnce$LT$$LP$$RP$$GT$$GT$9call_once17h84a6fee52bda7451E.exit"
	movb	$1, (%r14)
	addq	$88, %rsp
	.cfi_def_cfa_offset 24
	popq	%rbx
	.cfi_def_cfa_offset 16
	popq	%r14
	.cfi_def_cfa_offset 8
	retq
.LBB7_1:                                # %bb2.i.i.i.i
	.cfi_def_cfa_offset 112
	movl	$_ZN44_$LT$$RF$T$u20$as$u20$core..fmt..Display$GT$3fmt17h568fe60fa079166bE, %eax
	movq	%rax, %xmm0
	movl	$.Lanon.112aa5216417f3e30cbfa40815f3b444.27, %eax
	movq	%rax, %xmm1
	punpcklqdq	%xmm0, %xmm1    # xmm1 = xmm1[0],xmm0[0]
	movdqa	%xmm1, (%rsp)
	movq	$.Lanon.112aa5216417f3e30cbfa40815f3b444.21, 40(%rsp)
	movq	$1, 48(%rsp)
	movq	$0, 56(%rsp)
	movq	%rsp, %rax
	movq	%rax, 72(%rsp)
	movq	$1, 80(%rsp)
.Ltmp11:
	leaq	40(%rsp), %rdi
	movl	$.Lanon.112aa5216417f3e30cbfa40815f3b444.28, %esi
	callq	*_ZN3std9panicking15begin_panic_fmt17h8df736026eee128cE@GOTPCREL(%rip)
.Ltmp12:
# %bb.2:                                # %.noexc.i.i.i
.LBB7_6:                                # %cleanup.i.i.i
.Ltmp17:
	movq	%rax, %rbx
	leaq	24(%rsp), %rdi
	callq	_ZN4core3ptr18real_drop_in_place17hbe25490c23878e8eE
	movq	%rbx, %rdi
	callq	_Unwind_Resume
.Lfunc_end7:
	.size	_ZN3std9panicking3try7do_call17h0828aa63555b211dE, .Lfunc_end7-_ZN3std9panicking3try7do_call17h0828aa63555b211dE
	.cfi_endproc
	.section	.gcc_except_table,"a",@progbits
	.p2align	2
GCC_except_table7:
.Lexception2:
	.byte	255                     # @LPStart Encoding = omit
	.byte	255                     # @TType Encoding = omit
	.byte	1                       # Call site Encoding = uleb128
	.uleb128 .Lcst_end2-.Lcst_begin2
.Lcst_begin2:
	.uleb128 .Ltmp13-.Lfunc_begin2  # >> Call Site 1 <<
	.uleb128 .Ltmp12-.Ltmp13        #   Call between .Ltmp13 and .Ltmp12
	.uleb128 .Ltmp17-.Lfunc_begin2  #     jumps to .Ltmp17
	.byte	0                       #   On action: cleanup
	.uleb128 .Ltmp12-.Lfunc_begin2  # >> Call Site 2 <<
	.uleb128 .Lfunc_end7-.Ltmp12    #   Call between .Ltmp12 and .Lfunc_end7
	.byte	0                       #     has no landing pad
	.byte	0                       #   On action: cleanup
.Lcst_end2:
	.p2align	2
                                        # -- End function
	.text
	.p2align	4, 0x90         # -- Begin function _ZN3std9panicking3try7do_call17h356bce4e10637fc0E
	.type	_ZN3std9panicking3try7do_call17h356bce4e10637fc0E,@function
_ZN3std9panicking3try7do_call17h356bce4e10637fc0E: # @_ZN3std9panicking3try7do_call17h356bce4e10637fc0E
.Lfunc_begin3:
	.cfi_startproc
	.cfi_personality 3, rust_eh_personality
	.cfi_lsda 3, .Lexception3
# %bb.0:                                # %start
	pushq	%r14
	.cfi_def_cfa_offset 16
	pushq	%rbx
	.cfi_def_cfa_offset 24
	subq	$184, %rsp
	.cfi_def_cfa_offset 208
	.cfi_offset %rbx, -24
	.cfi_offset %r14, -16
	movq	(%rdi), %rax
	movq	(%rax), %rbx
.Ltmp18:
	movq	%rbx, %rdi
	callq	_ZN4core3ptr18real_drop_in_place17hca145ce36531b1ceE
.Ltmp19:
# %bb.1:                                # %"_ZN101_$LT$std..panic..AssertUnwindSafe$LT$F$GT$$u20$as$u20$core..ops..function..FnOnce$LT$$LP$$RP$$GT$$GT$9call_once17h2c469918848a0364E.exit"
	movq	$2, (%rbx)
	addq	$8, %rbx
	movq	%rsp, %rsi
	movl	$184, %edx
	movq	%rbx, %rdi
	callq	*memcpy@GOTPCREL(%rip)
	addq	$184, %rsp
	.cfi_def_cfa_offset 24
	popq	%rbx
	.cfi_def_cfa_offset 16
	popq	%r14
	.cfi_def_cfa_offset 8
	retq
.LBB8_2:                                # %cleanup.i.i.i.i
	.cfi_def_cfa_offset 208
.Ltmp20:
	movq	%rax, %r14
	movq	$2, (%rbx)
	addq	$8, %rbx
	movq	%rsp, %rsi
	movl	$184, %edx
	movq	%rbx, %rdi
	callq	*memcpy@GOTPCREL(%rip)
	movq	%r14, %rdi
	callq	_Unwind_Resume
.Lfunc_end8:
	.size	_ZN3std9panicking3try7do_call17h356bce4e10637fc0E, .Lfunc_end8-_ZN3std9panicking3try7do_call17h356bce4e10637fc0E
	.cfi_endproc
	.section	.gcc_except_table,"a",@progbits
	.p2align	2
GCC_except_table8:
.Lexception3:
	.byte	255                     # @LPStart Encoding = omit
	.byte	255                     # @TType Encoding = omit
	.byte	1                       # Call site Encoding = uleb128
	.uleb128 .Lcst_end3-.Lcst_begin3
.Lcst_begin3:
	.uleb128 .Ltmp18-.Lfunc_begin3  # >> Call Site 1 <<
	.uleb128 .Ltmp19-.Ltmp18        #   Call between .Ltmp18 and .Ltmp19
	.uleb128 .Ltmp20-.Lfunc_begin3  #     jumps to .Ltmp20
	.byte	0                       #   On action: cleanup
	.uleb128 .Ltmp19-.Lfunc_begin3  # >> Call Site 2 <<
	.uleb128 .Lfunc_end8-.Ltmp19    #   Call between .Ltmp19 and .Lfunc_end8
	.byte	0                       #     has no landing pad
	.byte	0                       #   On action: cleanup
.Lcst_end3:
	.p2align	2
                                        # -- End function
	.text
	.p2align	4, 0x90         # -- Begin function _ZN3std9panicking3try7do_call17hcc1357f0800e2dd6E
	.type	_ZN3std9panicking3try7do_call17hcc1357f0800e2dd6E,@function
_ZN3std9panicking3try7do_call17hcc1357f0800e2dd6E: # @_ZN3std9panicking3try7do_call17hcc1357f0800e2dd6E
.Lfunc_begin4:
	.cfi_startproc
	.cfi_personality 3, rust_eh_personality
	.cfi_lsda 3, .Lexception4
# %bb.0:                                # %start
	pushq	%r14
	.cfi_def_cfa_offset 16
	pushq	%rbx
	.cfi_def_cfa_offset 24
	subq	$88, %rsp
	.cfi_def_cfa_offset 112
	.cfi_offset %rbx, -24
	.cfi_offset %r14, -16
	movq	(%rdi), %rcx
	movq	8(%rdi), %rax
	movq	(%rcx), %rbx
	movq	%rbx, 24(%rsp)
	movb	$0, 32(%rsp)
	cmpq	$0, (%rbx)
	jne	.LBB9_1
# %bb.3:                                # %bb15.i.i.i.i
	movq	%rdi, %r14
	movq	(%rax), %rdi
.Ltmp23:
	movl	$.Lanon.112aa5216417f3e30cbfa40815f3b444.34, %esi
	callq	*_ZN4core4task4wake8RawWaker3new17h3348ef682dfa8f58E@GOTPCREL(%rip)
.Ltmp24:
# %bb.4:                                # %.noexc5.i.i.i
	addq	$8, %rbx
	movq	%rax, 40(%rsp)
	movq	%rdx, 48(%rsp)
	leaq	40(%rsp), %rax
	movq	%rax, (%rsp)
.Ltmp25:
	movq	%rsp, %rsi
	movq	%rbx, %rdi
	callq	_ZN80_$LT$std..future..GenFuture$LT$T$GT$$u20$as$u20$core..future..future..Future$GT$4poll17he4a2e106d9378ec8E
.Ltmp26:
# %bb.5:                                # %"_ZN101_$LT$std..panic..AssertUnwindSafe$LT$F$GT$$u20$as$u20$core..ops..function..FnOnce$LT$$LP$$RP$$GT$$GT$9call_once17h482a14af1638a4b9E.exit"
	movb	$1, (%r14)
	addq	$88, %rsp
	.cfi_def_cfa_offset 24
	popq	%rbx
	.cfi_def_cfa_offset 16
	popq	%r14
	.cfi_def_cfa_offset 8
	retq
.LBB9_1:                                # %bb2.i.i.i.i
	.cfi_def_cfa_offset 112
	movl	$_ZN44_$LT$$RF$T$u20$as$u20$core..fmt..Display$GT$3fmt17h568fe60fa079166bE, %eax
	movq	%rax, %xmm0
	movl	$.Lanon.112aa5216417f3e30cbfa40815f3b444.27, %eax
	movq	%rax, %xmm1
	punpcklqdq	%xmm0, %xmm1    # xmm1 = xmm1[0],xmm0[0]
	movdqa	%xmm1, (%rsp)
	movq	$.Lanon.112aa5216417f3e30cbfa40815f3b444.21, 40(%rsp)
	movq	$1, 48(%rsp)
	movq	$0, 56(%rsp)
	movq	%rsp, %rax
	movq	%rax, 72(%rsp)
	movq	$1, 80(%rsp)
.Ltmp21:
	leaq	40(%rsp), %rdi
	movl	$.Lanon.112aa5216417f3e30cbfa40815f3b444.28, %esi
	callq	*_ZN3std9panicking15begin_panic_fmt17h8df736026eee128cE@GOTPCREL(%rip)
.Ltmp22:
# %bb.2:                                # %.noexc.i.i.i
.LBB9_6:                                # %cleanup.i.i.i
.Ltmp27:
	movq	%rax, %rbx
	leaq	24(%rsp), %rdi
	callq	_ZN4core3ptr18real_drop_in_place17hbe25490c23878e8eE
	movq	%rbx, %rdi
	callq	_Unwind_Resume
.Lfunc_end9:
	.size	_ZN3std9panicking3try7do_call17hcc1357f0800e2dd6E, .Lfunc_end9-_ZN3std9panicking3try7do_call17hcc1357f0800e2dd6E
	.cfi_endproc
	.section	.gcc_except_table,"a",@progbits
	.p2align	2
GCC_except_table9:
.Lexception4:
	.byte	255                     # @LPStart Encoding = omit
	.byte	255                     # @TType Encoding = omit
	.byte	1                       # Call site Encoding = uleb128
	.uleb128 .Lcst_end4-.Lcst_begin4
.Lcst_begin4:
	.uleb128 .Ltmp23-.Lfunc_begin4  # >> Call Site 1 <<
	.uleb128 .Ltmp22-.Ltmp23        #   Call between .Ltmp23 and .Ltmp22
	.uleb128 .Ltmp27-.Lfunc_begin4  #     jumps to .Ltmp27
	.byte	0                       #   On action: cleanup
	.uleb128 .Ltmp22-.Lfunc_begin4  # >> Call Site 2 <<
	.uleb128 .Lfunc_end9-.Ltmp22    #   Call between .Ltmp22 and .Lfunc_end9
	.byte	0                       #     has no landing pad
	.byte	0                       #   On action: cleanup
.Lcst_end4:
	.p2align	2
                                        # -- End function
	.text
	.p2align	4, 0x90         # -- Begin function _ZN44_$LT$$RF$T$u20$as$u20$core..fmt..Display$GT$3fmt17h568fe60fa079166bE
	.type	_ZN44_$LT$$RF$T$u20$as$u20$core..fmt..Display$GT$3fmt17h568fe60fa079166bE,@function
_ZN44_$LT$$RF$T$u20$as$u20$core..fmt..Display$GT$3fmt17h568fe60fa079166bE: # @"_ZN44_$LT$$RF$T$u20$as$u20$core..fmt..Display$GT$3fmt17h568fe60fa079166bE"
	.cfi_startproc
# %bb.0:                                # %start
	movq	%rsi, %rdx
	movq	(%rdi), %rax
	movq	8(%rdi), %rsi
	movq	%rax, %rdi
	jmpq	*_ZN42_$LT$str$u20$as$u20$core..fmt..Display$GT$3fmt17hc19f19c00f549debE@GOTPCREL(%rip) # TAILCALL
.Lfunc_end10:
	.size	_ZN44_$LT$$RF$T$u20$as$u20$core..fmt..Display$GT$3fmt17h568fe60fa079166bE, .Lfunc_end10-_ZN44_$LT$$RF$T$u20$as$u20$core..fmt..Display$GT$3fmt17h568fe60fa079166bE
	.cfi_endproc
                                        # -- End function
	.p2align	4, 0x90         # -- Begin function _ZN45_$LT$$LP$$RP$$u20$as$u20$core..fmt..Debug$GT$3fmt17he0b7e4faabc5658fE
	.type	_ZN45_$LT$$LP$$RP$$u20$as$u20$core..fmt..Debug$GT$3fmt17he0b7e4faabc5658fE,@function
_ZN45_$LT$$LP$$RP$$u20$as$u20$core..fmt..Debug$GT$3fmt17he0b7e4faabc5658fE: # @"_ZN45_$LT$$LP$$RP$$u20$as$u20$core..fmt..Debug$GT$3fmt17he0b7e4faabc5658fE"
	.cfi_startproc
# %bb.0:                                # %start
	movq	%rsi, %rdi
	movl	$.Lanon.112aa5216417f3e30cbfa40815f3b444.3, %esi
	movl	$2, %edx
	jmpq	*_ZN4core3fmt9Formatter3pad17hb5b5664cd7ca8060E@GOTPCREL(%rip) # TAILCALL
.Lfunc_end11:
	.size	_ZN45_$LT$$LP$$RP$$u20$as$u20$core..fmt..Debug$GT$3fmt17he0b7e4faabc5658fE, .Lfunc_end11-_ZN45_$LT$$LP$$RP$$u20$as$u20$core..fmt..Debug$GT$3fmt17he0b7e4faabc5658fE
	.cfi_endproc
                                        # -- End function
	.p2align	4, 0x90         # -- Begin function _ZN4core3ops8function6FnOnce40call_once$u7b$$u7b$vtable.shim$u7d$$u7d$17h3e432dc8d786e559E
	.type	_ZN4core3ops8function6FnOnce40call_once$u7b$$u7b$vtable.shim$u7d$$u7d$17h3e432dc8d786e559E,@function
_ZN4core3ops8function6FnOnce40call_once$u7b$$u7b$vtable.shim$u7d$$u7d$17h3e432dc8d786e559E: # @"_ZN4core3ops8function6FnOnce40call_once$u7b$$u7b$vtable.shim$u7d$$u7d$17h3e432dc8d786e559E"
	.cfi_startproc
# %bb.0:                                # %start
	pushq	%rax
	.cfi_def_cfa_offset 16
	movq	(%rdi), %rax
	movq	%rax, (%rsp)
	movq	%rsp, %rdi
	callq	_ZN3std2rt10lang_start28_$u7b$$u7b$closure$u7d$$u7d$17h0ea676343dfb611dE
	popq	%rcx
	.cfi_def_cfa_offset 8
	retq
.Lfunc_end12:
	.size	_ZN4core3ops8function6FnOnce40call_once$u7b$$u7b$vtable.shim$u7d$$u7d$17h3e432dc8d786e559E, .Lfunc_end12-_ZN4core3ops8function6FnOnce40call_once$u7b$$u7b$vtable.shim$u7d$$u7d$17h3e432dc8d786e559E
	.cfi_endproc
                                        # -- End function
	.p2align	4, 0x90         # -- Begin function _ZN4core3ops8function6FnOnce40call_once$u7b$$u7b$vtable.shim$u7d$$u7d$17h55201cde9aab2698E
	.type	_ZN4core3ops8function6FnOnce40call_once$u7b$$u7b$vtable.shim$u7d$$u7d$17h55201cde9aab2698E,@function
_ZN4core3ops8function6FnOnce40call_once$u7b$$u7b$vtable.shim$u7d$$u7d$17h55201cde9aab2698E: # @"_ZN4core3ops8function6FnOnce40call_once$u7b$$u7b$vtable.shim$u7d$$u7d$17h55201cde9aab2698E"
	.cfi_startproc
# %bb.0:                                # %start
	movq	(%rdi), %rax
	movq	(%rax), %rax
	movq	(%rax), %rax
	movq	(%rax), %rax
	retq
.Lfunc_end13:
	.size	_ZN4core3ops8function6FnOnce40call_once$u7b$$u7b$vtable.shim$u7d$$u7d$17h55201cde9aab2698E, .Lfunc_end13-_ZN4core3ops8function6FnOnce40call_once$u7b$$u7b$vtable.shim$u7d$$u7d$17h55201cde9aab2698E
	.cfi_endproc
                                        # -- End function
	.p2align	4, 0x90         # -- Begin function _ZN4core3ptr18real_drop_in_place17h02dd6b3a0a1c609bE
	.type	_ZN4core3ptr18real_drop_in_place17h02dd6b3a0a1c609bE,@function
_ZN4core3ptr18real_drop_in_place17h02dd6b3a0a1c609bE: # @_ZN4core3ptr18real_drop_in_place17h02dd6b3a0a1c609bE
.Lfunc_begin5:
	.cfi_startproc
	.cfi_personality 3, rust_eh_personality
	.cfi_lsda 3, .Lexception5
# %bb.0:                                # %start
	pushq	%r15
	.cfi_def_cfa_offset 16
	pushq	%r14
	.cfi_def_cfa_offset 24
	pushq	%rbx
	.cfi_def_cfa_offset 32
	.cfi_offset %rbx, -32
	.cfi_offset %r14, -24
	.cfi_offset %r15, -16
	cmpq	$0, (%rdi)
	je	.LBB14_6
# %bb.1:                                # %bb2
	movq	%rdi, %rbx
	cmpb	$2, 8(%rdi)
	jae	.LBB14_2
.LBB14_6:                               # %bb1
	popq	%rbx
	.cfi_def_cfa_offset 24
	popq	%r14
	.cfi_def_cfa_offset 16
	popq	%r15
	.cfi_def_cfa_offset 8
	retq
.LBB14_2:                               # %bb2.i.i
	.cfi_def_cfa_offset 32
	movq	16(%rbx), %r15
	movq	(%r15), %rdi
	movq	8(%r15), %rax
.Ltmp28:
	callq	*(%rax)
.Ltmp29:
# %bb.3:                                # %bb3.i.i.i.i.i
	movq	8(%r15), %rax
	movq	8(%rax), %rsi
	testq	%rsi, %rsi
	je	.LBB14_5
# %bb.4:                                # %bb4.i.i.i.i.i.i
	movq	(%r15), %rdi
	movq	16(%rax), %rdx
	callq	*__rust_dealloc@GOTPCREL(%rip)
.LBB14_5:                               # %_ZN4core3ptr18real_drop_in_place17h27b9bb4166fdb623E.exit.i.i
	movq	16(%rbx), %rdi
	movl	$24, %esi
	movl	$8, %edx
	popq	%rbx
	.cfi_def_cfa_offset 24
	popq	%r14
	.cfi_def_cfa_offset 16
	popq	%r15
	.cfi_def_cfa_offset 8
	jmpq	*__rust_dealloc@GOTPCREL(%rip) # TAILCALL
.LBB14_7:                               # %cleanup.i.i.i.i.i
	.cfi_def_cfa_offset 32
.Ltmp30:
	movq	%rax, %r14
	movq	(%r15), %rdi
	movq	8(%r15), %rsi
	callq	_ZN5alloc5alloc8box_free17h39766183111e1fbdE
	movq	16(%rbx), %rdi
	callq	_ZN5alloc5alloc8box_free17ha829dafaf86a282fE
	movq	%r14, %rdi
	callq	_Unwind_Resume
.Lfunc_end14:
	.size	_ZN4core3ptr18real_drop_in_place17h02dd6b3a0a1c609bE, .Lfunc_end14-_ZN4core3ptr18real_drop_in_place17h02dd6b3a0a1c609bE
	.cfi_endproc
	.section	.gcc_except_table,"a",@progbits
	.p2align	2
GCC_except_table14:
.Lexception5:
	.byte	255                     # @LPStart Encoding = omit
	.byte	255                     # @TType Encoding = omit
	.byte	1                       # Call site Encoding = uleb128
	.uleb128 .Lcst_end5-.Lcst_begin5
.Lcst_begin5:
	.uleb128 .Ltmp28-.Lfunc_begin5  # >> Call Site 1 <<
	.uleb128 .Ltmp29-.Ltmp28        #   Call between .Ltmp28 and .Ltmp29
	.uleb128 .Ltmp30-.Lfunc_begin5  #     jumps to .Ltmp30
	.byte	0                       #   On action: cleanup
	.uleb128 .Ltmp29-.Lfunc_begin5  # >> Call Site 2 <<
	.uleb128 .Lfunc_end14-.Ltmp29   #   Call between .Ltmp29 and .Lfunc_end14
	.byte	0                       #     has no landing pad
	.byte	0                       #   On action: cleanup
.Lcst_end5:
	.p2align	2
                                        # -- End function
	.text
	.p2align	4, 0x90         # -- Begin function _ZN4core3ptr18real_drop_in_place17h02e96a77055b26b7E
	.type	_ZN4core3ptr18real_drop_in_place17h02e96a77055b26b7E,@function
_ZN4core3ptr18real_drop_in_place17h02e96a77055b26b7E: # @_ZN4core3ptr18real_drop_in_place17h02e96a77055b26b7E
	.cfi_startproc
# %bb.0:                                # %start
	movq	(%rdi), %rdi
	movl	$64, %esi
	movl	$8, %edx
	jmpq	*__rust_dealloc@GOTPCREL(%rip) # TAILCALL
.Lfunc_end15:
	.size	_ZN4core3ptr18real_drop_in_place17h02e96a77055b26b7E, .Lfunc_end15-_ZN4core3ptr18real_drop_in_place17h02e96a77055b26b7E
	.cfi_endproc
                                        # -- End function
	.p2align	4, 0x90         # -- Begin function _ZN4core3ptr18real_drop_in_place17h032bb3b7232478c2E
	.type	_ZN4core3ptr18real_drop_in_place17h032bb3b7232478c2E,@function
_ZN4core3ptr18real_drop_in_place17h032bb3b7232478c2E: # @_ZN4core3ptr18real_drop_in_place17h032bb3b7232478c2E
	.cfi_startproc
# %bb.0:                                # %start
	jmpq	*_ZN5tokio4task3raw7RawTask9drop_task17h698abef7adc201bbE@GOTPCREL(%rip) # TAILCALL
.Lfunc_end16:
	.size	_ZN4core3ptr18real_drop_in_place17h032bb3b7232478c2E, .Lfunc_end16-_ZN4core3ptr18real_drop_in_place17h032bb3b7232478c2E
	.cfi_endproc
                                        # -- End function
	.p2align	4, 0x90         # -- Begin function _ZN4core3ptr18real_drop_in_place17h039a5de4cf8b2434E
	.type	_ZN4core3ptr18real_drop_in_place17h039a5de4cf8b2434E,@function
_ZN4core3ptr18real_drop_in_place17h039a5de4cf8b2434E: # @_ZN4core3ptr18real_drop_in_place17h039a5de4cf8b2434E
	.cfi_startproc
# %bb.0:                                # %start
	cmpq	$0, (%rdi)
	je	.LBB17_1
# %bb.2:                                # %bb2
	addq	$16, %rdi
	jmpq	*_ZN70_$LT$std..sys..unix..fd..FileDesc$u20$as$u20$core..ops..drop..Drop$GT$4drop17hf2b9d188fe38bb32E@GOTPCREL(%rip) # TAILCALL
.LBB17_1:                               # %bb1
	retq
.Lfunc_end17:
	.size	_ZN4core3ptr18real_drop_in_place17h039a5de4cf8b2434E, .Lfunc_end17-_ZN4core3ptr18real_drop_in_place17h039a5de4cf8b2434E
	.cfi_endproc
                                        # -- End function
	.p2align	4, 0x90         # -- Begin function _ZN4core3ptr18real_drop_in_place17h0805755c54a7a761E
	.type	_ZN4core3ptr18real_drop_in_place17h0805755c54a7a761E,@function
_ZN4core3ptr18real_drop_in_place17h0805755c54a7a761E: # @_ZN4core3ptr18real_drop_in_place17h0805755c54a7a761E
	.cfi_startproc
# %bb.0:                                # %start
	movq	(%rdi), %rax
	leaq	1(%rax), %rcx
	cmpq	$1, %rcx
	jbe	.LBB18_2
# %bb.1:                                # %bb3.i.i.i
	lock		subq	$1, 8(%rax)
	jne	.LBB18_2
# %bb.3:                                # %bb6.i.i.i
	#MEMBARRIER
	movq	(%rdi), %rdi
	movl	$144, %esi
	movl	$8, %edx
	jmpq	*__rust_dealloc@GOTPCREL(%rip) # TAILCALL
.LBB18_2:                               # %bb1
	retq
.Lfunc_end18:
	.size	_ZN4core3ptr18real_drop_in_place17h0805755c54a7a761E, .Lfunc_end18-_ZN4core3ptr18real_drop_in_place17h0805755c54a7a761E
	.cfi_endproc
                                        # -- End function
	.p2align	4, 0x90         # -- Begin function _ZN4core3ptr18real_drop_in_place17h0a3379bb6d3dc22fE
	.type	_ZN4core3ptr18real_drop_in_place17h0a3379bb6d3dc22fE,@function
_ZN4core3ptr18real_drop_in_place17h0a3379bb6d3dc22fE: # @_ZN4core3ptr18real_drop_in_place17h0a3379bb6d3dc22fE
	.cfi_startproc
# %bb.0:                                # %start
	movq	(%rdi), %rax
	lock		subq	$1, (%rax)
	jne	.LBB19_1
# %bb.2:                                # %bb3.i.i
	#MEMBARRIER
	jmp	_ZN5alloc4sync12Arc$LT$T$GT$9drop_slow17h27122a2f92d5b3e1E # TAILCALL
.LBB19_1:                               # %_ZN4core3ptr18real_drop_in_place17hc21f2067eaf38c08E.exit
	retq
.Lfunc_end19:
	.size	_ZN4core3ptr18real_drop_in_place17h0a3379bb6d3dc22fE, .Lfunc_end19-_ZN4core3ptr18real_drop_in_place17h0a3379bb6d3dc22fE
	.cfi_endproc
                                        # -- End function
	.p2align	4, 0x90         # -- Begin function _ZN4core3ptr18real_drop_in_place17h0b30e8d9d34d5f31E
	.type	_ZN4core3ptr18real_drop_in_place17h0b30e8d9d34d5f31E,@function
_ZN4core3ptr18real_drop_in_place17h0b30e8d9d34d5f31E: # @_ZN4core3ptr18real_drop_in_place17h0b30e8d9d34d5f31E
	.cfi_startproc
# %bb.0:                                # %start
	movq	(%rdi), %rax
	testq	%rax, %rax
	je	.LBB20_2
# %bb.1:                                # %bb2
	lock		subq	$1, (%rax)
	jne	.LBB20_2
# %bb.3:                                # %bb3.i.i
	#MEMBARRIER
	jmp	_ZN5alloc4sync12Arc$LT$T$GT$9drop_slow17h5d84505ff6cb1dc8E # TAILCALL
.LBB20_2:                               # %bb1
	retq
.Lfunc_end20:
	.size	_ZN4core3ptr18real_drop_in_place17h0b30e8d9d34d5f31E, .Lfunc_end20-_ZN4core3ptr18real_drop_in_place17h0b30e8d9d34d5f31E
	.cfi_endproc
                                        # -- End function
	.p2align	4, 0x90         # -- Begin function _ZN4core3ptr18real_drop_in_place17h0c5e93ad2f336c64E
	.type	_ZN4core3ptr18real_drop_in_place17h0c5e93ad2f336c64E,@function
_ZN4core3ptr18real_drop_in_place17h0c5e93ad2f336c64E: # @_ZN4core3ptr18real_drop_in_place17h0c5e93ad2f336c64E
.Lfunc_begin6:
	.cfi_startproc
	.cfi_personality 3, rust_eh_personality
	.cfi_lsda 3, .Lexception6
# %bb.0:                                # %start
	pushq	%r15
	.cfi_def_cfa_offset 16
	pushq	%r14
	.cfi_def_cfa_offset 24
	pushq	%r12
	.cfi_def_cfa_offset 32
	pushq	%rbx
	.cfi_def_cfa_offset 40
	pushq	%rax
	.cfi_def_cfa_offset 48
	.cfi_offset %rbx, -40
	.cfi_offset %r12, -32
	.cfi_offset %r14, -24
	.cfi_offset %r15, -16
	movq	(%rdi), %r15
	movq	8(%rdi), %r12
	shlq	$3, %r12
	xorl	%ebx, %ebx
	movq	_ZN5tokio4task3raw7RawTask9drop_task17h698abef7adc201bbE@GOTPCREL(%rip), %r14
	.p2align	4, 0x90
.LBB21_5:                               # %bb11.i.i.i
                                        # =>This Inner Loop Header: Depth=1
	cmpq	%rbx, %r12
	je	.LBB21_6
# %bb.4:                                # %bb10.i.i.i
                                        #   in Loop: Header=BB21_5 Depth=1
	movq	(%r15,%rbx), %rdi
	addq	$8, %rbx
.Ltmp31:
	callq	*%r14
.Ltmp32:
	jmp	.LBB21_5
.LBB21_6:                               # %"_ZN155_$LT$$LT$alloc..collections..vec_deque..VecDeque$LT$T$GT$$u20$as$u20$core..ops..drop..Drop$GT$..drop..Dropper$LT$T$GT$$u20$as$u20$core..ops..drop..Drop$GT$4drop17hbb33cffebb787837E.exit"
	addq	$8, %rsp
	.cfi_def_cfa_offset 40
	popq	%rbx
	.cfi_def_cfa_offset 32
	popq	%r12
	.cfi_def_cfa_offset 24
	popq	%r14
	.cfi_def_cfa_offset 16
	popq	%r15
	.cfi_def_cfa_offset 8
	retq
.LBB21_7:                               # %cleanup.i.i.i
	.cfi_def_cfa_offset 48
.Ltmp33:
	movq	%rax, %r14
	cmpq	%rbx, %r12
	je	.LBB21_3
.LBB21_1:                               # %bb8.i.i.i
                                        # =>This Inner Loop Header: Depth=1
	movq	(%r15,%rbx), %rdi
	callq	_ZN4core3ptr18real_drop_in_place17h032bb3b7232478c2E
	addq	$8, %rbx
	cmpq	%rbx, %r12
	jne	.LBB21_1
.LBB21_3:                               # %bb2.i.i.i
	movq	%r14, %rdi
	callq	_Unwind_Resume
.Lfunc_end21:
	.size	_ZN4core3ptr18real_drop_in_place17h0c5e93ad2f336c64E, .Lfunc_end21-_ZN4core3ptr18real_drop_in_place17h0c5e93ad2f336c64E
	.cfi_endproc
	.section	.gcc_except_table,"a",@progbits
	.p2align	2
GCC_except_table21:
.Lexception6:
	.byte	255                     # @LPStart Encoding = omit
	.byte	255                     # @TType Encoding = omit
	.byte	1                       # Call site Encoding = uleb128
	.uleb128 .Lcst_end6-.Lcst_begin6
.Lcst_begin6:
	.uleb128 .Ltmp31-.Lfunc_begin6  # >> Call Site 1 <<
	.uleb128 .Ltmp32-.Ltmp31        #   Call between .Ltmp31 and .Ltmp32
	.uleb128 .Ltmp33-.Lfunc_begin6  #     jumps to .Ltmp33
	.byte	0                       #   On action: cleanup
	.uleb128 .Ltmp32-.Lfunc_begin6  # >> Call Site 2 <<
	.uleb128 .Lfunc_end21-.Ltmp32   #   Call between .Ltmp32 and .Lfunc_end21
	.byte	0                       #     has no landing pad
	.byte	0                       #   On action: cleanup
.Lcst_end6:
	.p2align	2
                                        # -- End function
	.text
	.p2align	4, 0x90         # -- Begin function _ZN4core3ptr18real_drop_in_place17h0e7bfccaa03490aaE
	.type	_ZN4core3ptr18real_drop_in_place17h0e7bfccaa03490aaE,@function
_ZN4core3ptr18real_drop_in_place17h0e7bfccaa03490aaE: # @_ZN4core3ptr18real_drop_in_place17h0e7bfccaa03490aaE
.Lfunc_begin7:
	.cfi_startproc
	.cfi_personality 3, rust_eh_personality
	.cfi_lsda 3, .Lexception7
# %bb.0:                                # %start
	pushq	%r15
	.cfi_def_cfa_offset 16
	pushq	%r14
	.cfi_def_cfa_offset 24
	pushq	%rbx
	.cfi_def_cfa_offset 32
	.cfi_offset %rbx, -32
	.cfi_offset %r14, -24
	.cfi_offset %r15, -16
	movq	(%rdi), %rbx
	testq	%rbx, %rbx
	je	.LBB22_11
# %bb.1:                                # %bb2.i.i
	movq	%rdi, %r14
	leaq	16(%rbx), %rdi
.Ltmp34:
	callq	*_ZN5tokio4sync7oneshot5State10set_closed17h1245aa12b7db01aeE@GOTPCREL(%rip)
.Ltmp35:
# %bb.2:                                # %_7.i.i.noexc.i
	movq	%rax, %r15
.Ltmp36:
	movq	%rax, %rdi
	callq	*_ZN5tokio4sync7oneshot5State14is_tx_task_set17h1483fb4bbe76be02E@GOTPCREL(%rip)
.Ltmp37:
# %bb.3:                                # %.noexc.i
	testb	%al, %al
	je	.LBB22_7
# %bb.4:                                # %bb4.i.i.i
.Ltmp38:
	movq	%r15, %rdi
	callq	*_ZN5tokio4sync7oneshot5State11is_complete17h783483c417cbb1fbE@GOTPCREL(%rip)
.Ltmp39:
# %bb.5:                                # %.noexc5.i
	testb	%al, %al
	jne	.LBB22_7
# %bb.6:                                # %bb8.i.i.i
	movq	24(%rbx), %rdi
	movq	32(%rbx), %rax
.Ltmp40:
	callq	*16(%rax)
.Ltmp41:
.LBB22_7:                               # %bb4.i
	movq	(%r14), %rax
	testq	%rax, %rax
	je	.LBB22_11
# %bb.8:                                # %bb2.i7.i
	lock		subq	$1, (%rax)
	jne	.LBB22_11
# %bb.9:                                # %bb3.i.i.i.i
	#MEMBARRIER
	movq	%r14, %rdi
	popq	%rbx
	.cfi_def_cfa_offset 24
	popq	%r14
	.cfi_def_cfa_offset 16
	popq	%r15
	.cfi_def_cfa_offset 8
	jmp	_ZN5alloc4sync12Arc$LT$T$GT$9drop_slow17hdf925423c13282e1E # TAILCALL
.LBB22_11:                              # %_ZN4core3ptr18real_drop_in_place17he4e9ce7ec2951332E.exit
	.cfi_def_cfa_offset 32
	popq	%rbx
	.cfi_def_cfa_offset 24
	popq	%r14
	.cfi_def_cfa_offset 16
	popq	%r15
	.cfi_def_cfa_offset 8
	retq
.LBB22_10:                              # %cleanup.i
	.cfi_def_cfa_offset 32
.Ltmp42:
	movq	%rax, %rbx
	movq	%r14, %rdi
	callq	_ZN4core3ptr18real_drop_in_place17h42c5a505e750659bE
	movq	%rbx, %rdi
	callq	_Unwind_Resume
.Lfunc_end22:
	.size	_ZN4core3ptr18real_drop_in_place17h0e7bfccaa03490aaE, .Lfunc_end22-_ZN4core3ptr18real_drop_in_place17h0e7bfccaa03490aaE
	.cfi_endproc
	.section	.gcc_except_table,"a",@progbits
	.p2align	2
GCC_except_table22:
.Lexception7:
	.byte	255                     # @LPStart Encoding = omit
	.byte	255                     # @TType Encoding = omit
	.byte	1                       # Call site Encoding = uleb128
	.uleb128 .Lcst_end7-.Lcst_begin7
.Lcst_begin7:
	.uleb128 .Ltmp34-.Lfunc_begin7  # >> Call Site 1 <<
	.uleb128 .Ltmp41-.Ltmp34        #   Call between .Ltmp34 and .Ltmp41
	.uleb128 .Ltmp42-.Lfunc_begin7  #     jumps to .Ltmp42
	.byte	0                       #   On action: cleanup
	.uleb128 .Ltmp41-.Lfunc_begin7  # >> Call Site 2 <<
	.uleb128 .Lfunc_end22-.Ltmp41   #   Call between .Ltmp41 and .Lfunc_end22
	.byte	0                       #     has no landing pad
	.byte	0                       #   On action: cleanup
.Lcst_end7:
	.p2align	2
                                        # -- End function
	.text
	.p2align	4, 0x90         # -- Begin function _ZN4core3ptr18real_drop_in_place17h0fa96f10805463b4E
	.type	_ZN4core3ptr18real_drop_in_place17h0fa96f10805463b4E,@function
_ZN4core3ptr18real_drop_in_place17h0fa96f10805463b4E: # @_ZN4core3ptr18real_drop_in_place17h0fa96f10805463b4E
	.cfi_startproc
# %bb.0:                                # %start
	movq	(%rdi), %rax
	cmpq	$2, %rax
	jne	.LBB23_1
# %bb.3:                                # %bb1
	retq
.LBB23_1:                               # %bb2
	addq	$8, %rdi
	testq	%rax, %rax
	je	.LBB23_4
# %bb.2:                                # %bb3.i
	jmp	_ZN4core3ptr18real_drop_in_place17h664ae0e66d8bb2d1E # TAILCALL
.LBB23_4:                               # %bb2.i
	jmp	_ZN4core3ptr18real_drop_in_place17ha4eaf2372c827098E # TAILCALL
.Lfunc_end23:
	.size	_ZN4core3ptr18real_drop_in_place17h0fa96f10805463b4E, .Lfunc_end23-_ZN4core3ptr18real_drop_in_place17h0fa96f10805463b4E
	.cfi_endproc
                                        # -- End function
	.p2align	4, 0x90         # -- Begin function _ZN4core3ptr18real_drop_in_place17h17386eb751d7fc4eE
	.type	_ZN4core3ptr18real_drop_in_place17h17386eb751d7fc4eE,@function
_ZN4core3ptr18real_drop_in_place17h17386eb751d7fc4eE: # @_ZN4core3ptr18real_drop_in_place17h17386eb751d7fc4eE
	.cfi_startproc
# %bb.0:                                # %start
	pushq	%r14
	.cfi_def_cfa_offset 16
	pushq	%rbx
	.cfi_def_cfa_offset 24
	pushq	%rax
	.cfi_def_cfa_offset 32
	.cfi_offset %rbx, -24
	.cfi_offset %r14, -16
	movq	%rdi, %rbx
	cmpb	$0, 8(%rdi)
	jne	.LBB24_3
# %bb.1:                                # %bb3.i.i
	movq	(%rbx), %r14
	callq	*_ZN3std9panicking9panicking17hb29bc5349f72a38fE@GOTPCREL(%rip)
	testb	%al, %al
	je	.LBB24_3
# %bb.2:                                # %bb6.i.i
	movb	$1, 8(%r14)
.LBB24_3:                               # %"_ZN79_$LT$std..sync..mutex..MutexGuard$LT$T$GT$$u20$as$u20$core..ops..drop..Drop$GT$4drop17h0174f6e69d564c90E.exit"
	movq	(%rbx), %rax
	movq	(%rax), %rdi
	addq	$8, %rsp
	.cfi_def_cfa_offset 24
	popq	%rbx
	.cfi_def_cfa_offset 16
	popq	%r14
	.cfi_def_cfa_offset 8
	jmpq	*pthread_mutex_unlock@GOTPCREL(%rip) # TAILCALL
.Lfunc_end24:
	.size	_ZN4core3ptr18real_drop_in_place17h17386eb751d7fc4eE, .Lfunc_end24-_ZN4core3ptr18real_drop_in_place17h17386eb751d7fc4eE
	.cfi_endproc
                                        # -- End function
	.p2align	4, 0x90         # -- Begin function _ZN4core3ptr18real_drop_in_place17h17dac8a9e600688dE
	.type	_ZN4core3ptr18real_drop_in_place17h17dac8a9e600688dE,@function
_ZN4core3ptr18real_drop_in_place17h17dac8a9e600688dE: # @_ZN4core3ptr18real_drop_in_place17h17dac8a9e600688dE
	.cfi_startproc
# %bb.0:                                # %start
	retq
.Lfunc_end25:
	.size	_ZN4core3ptr18real_drop_in_place17h17dac8a9e600688dE, .Lfunc_end25-_ZN4core3ptr18real_drop_in_place17h17dac8a9e600688dE
	.cfi_endproc
                                        # -- End function
	.p2align	4, 0x90         # -- Begin function _ZN4core3ptr18real_drop_in_place17h1adadefef472b07aE
	.type	_ZN4core3ptr18real_drop_in_place17h1adadefef472b07aE,@function
_ZN4core3ptr18real_drop_in_place17h1adadefef472b07aE: # @_ZN4core3ptr18real_drop_in_place17h1adadefef472b07aE
	.cfi_startproc
# %bb.0:                                # %start
	cmpq	$0, (%rdi)
	leaq	8(%rdi), %rdi
	je	.LBB26_1
# %bb.2:                                # %bb3
	jmp	_ZN4core3ptr18real_drop_in_place17h664ae0e66d8bb2d1E # TAILCALL
.LBB26_1:                               # %bb2
	jmp	_ZN4core3ptr18real_drop_in_place17h52b5450cfbc055ffE # TAILCALL
.Lfunc_end26:
	.size	_ZN4core3ptr18real_drop_in_place17h1adadefef472b07aE, .Lfunc_end26-_ZN4core3ptr18real_drop_in_place17h1adadefef472b07aE
	.cfi_endproc
                                        # -- End function
	.p2align	4, 0x90         # -- Begin function _ZN4core3ptr18real_drop_in_place17h1bb45bb9d03280c2E
	.type	_ZN4core3ptr18real_drop_in_place17h1bb45bb9d03280c2E,@function
_ZN4core3ptr18real_drop_in_place17h1bb45bb9d03280c2E: # @_ZN4core3ptr18real_drop_in_place17h1bb45bb9d03280c2E
.Lfunc_begin8:
	.cfi_startproc
	.cfi_personality 3, rust_eh_personality
	.cfi_lsda 3, .Lexception8
# %bb.0:                                # %start
	pushq	%r14
	.cfi_def_cfa_offset 16
	pushq	%rbx
	.cfi_def_cfa_offset 24
	pushq	%rax
	.cfi_def_cfa_offset 32
	.cfi_offset %rbx, -24
	.cfi_offset %r14, -16
	movq	%rdi, %rbx
.Ltmp43:
	callq	*_ZN83_$LT$tokio..runtime..context..enter..DropGuard$u20$as$u20$core..ops..drop..Drop$GT$4drop17hfc81e99be70e3074E@GOTPCREL(%rip)
.Ltmp44:
# %bb.1:                                # %bb4
	cmpl	$3, (%rbx)
	jne	.LBB27_4
# %bb.2:                                # %_ZN4core3ptr18real_drop_in_place17h6ad18ef181805c70E.exit
	addq	$8, %rsp
	.cfi_def_cfa_offset 24
	popq	%rbx
	.cfi_def_cfa_offset 16
	popq	%r14
	.cfi_def_cfa_offset 8
	retq
.LBB27_4:                               # %bb2.i
	.cfi_def_cfa_offset 32
	movq	%rbx, %rdi
	addq	$8, %rsp
	.cfi_def_cfa_offset 24
	popq	%rbx
	.cfi_def_cfa_offset 16
	popq	%r14
	.cfi_def_cfa_offset 8
	jmp	_ZN4core3ptr18real_drop_in_place17he00dcfa818232a3eE # TAILCALL
.LBB27_3:                               # %cleanup
	.cfi_def_cfa_offset 32
.Ltmp45:
	movq	%rax, %r14
	movq	%rbx, %rdi
	callq	_ZN4core3ptr18real_drop_in_place17h6ad18ef181805c70E
	movq	%r14, %rdi
	callq	_Unwind_Resume
.Lfunc_end27:
	.size	_ZN4core3ptr18real_drop_in_place17h1bb45bb9d03280c2E, .Lfunc_end27-_ZN4core3ptr18real_drop_in_place17h1bb45bb9d03280c2E
	.cfi_endproc
	.section	.gcc_except_table,"a",@progbits
	.p2align	2
GCC_except_table27:
.Lexception8:
	.byte	255                     # @LPStart Encoding = omit
	.byte	255                     # @TType Encoding = omit
	.byte	1                       # Call site Encoding = uleb128
	.uleb128 .Lcst_end8-.Lcst_begin8
.Lcst_begin8:
	.uleb128 .Ltmp43-.Lfunc_begin8  # >> Call Site 1 <<
	.uleb128 .Ltmp44-.Ltmp43        #   Call between .Ltmp43 and .Ltmp44
	.uleb128 .Ltmp45-.Lfunc_begin8  #     jumps to .Ltmp45
	.byte	0                       #   On action: cleanup
	.uleb128 .Ltmp44-.Lfunc_begin8  # >> Call Site 2 <<
	.uleb128 .Lfunc_end27-.Ltmp44   #   Call between .Ltmp44 and .Lfunc_end27
	.byte	0                       #     has no landing pad
	.byte	0                       #   On action: cleanup
.Lcst_end8:
	.p2align	2
                                        # -- End function
	.text
	.p2align	4, 0x90         # -- Begin function _ZN4core3ptr18real_drop_in_place17h1dfbf6d2047bdac8E
	.type	_ZN4core3ptr18real_drop_in_place17h1dfbf6d2047bdac8E,@function
_ZN4core3ptr18real_drop_in_place17h1dfbf6d2047bdac8E: # @_ZN4core3ptr18real_drop_in_place17h1dfbf6d2047bdac8E
	.cfi_startproc
# %bb.0:                                # %start
	addq	$8, %rdi
	jmpq	*_ZN70_$LT$std..sys..unix..fd..FileDesc$u20$as$u20$core..ops..drop..Drop$GT$4drop17hf2b9d188fe38bb32E@GOTPCREL(%rip) # TAILCALL
.Lfunc_end28:
	.size	_ZN4core3ptr18real_drop_in_place17h1dfbf6d2047bdac8E, .Lfunc_end28-_ZN4core3ptr18real_drop_in_place17h1dfbf6d2047bdac8E
	.cfi_endproc
                                        # -- End function
	.p2align	4, 0x90         # -- Begin function _ZN4core3ptr18real_drop_in_place17h1e17b893d760546dE
	.type	_ZN4core3ptr18real_drop_in_place17h1e17b893d760546dE,@function
_ZN4core3ptr18real_drop_in_place17h1e17b893d760546dE: # @_ZN4core3ptr18real_drop_in_place17h1e17b893d760546dE
	.cfi_startproc
# %bb.0:                                # %start
	movq	(%rdi), %rax
	lock		subq	$1, (%rax)
	jne	.LBB29_1
# %bb.2:                                # %bb3.i.i.i
	#MEMBARRIER
	jmp	_ZN5alloc4sync12Arc$LT$T$GT$9drop_slow17h0a7fbfec7b3b8de4E # TAILCALL
.LBB29_1:                               # %_ZN4core3ptr18real_drop_in_place17hb6066f68c21f383eE.exit
	retq
.Lfunc_end29:
	.size	_ZN4core3ptr18real_drop_in_place17h1e17b893d760546dE, .Lfunc_end29-_ZN4core3ptr18real_drop_in_place17h1e17b893d760546dE
	.cfi_endproc
                                        # -- End function
	.p2align	4, 0x90         # -- Begin function _ZN4core3ptr18real_drop_in_place17h26bbc049ccc22ec4E
	.type	_ZN4core3ptr18real_drop_in_place17h26bbc049ccc22ec4E,@function
_ZN4core3ptr18real_drop_in_place17h26bbc049ccc22ec4E: # @_ZN4core3ptr18real_drop_in_place17h26bbc049ccc22ec4E
	.cfi_startproc
# %bb.0:                                # %start
	cmpq	$0, (%rdi)
	leaq	8(%rdi), %rdi
	je	.LBB30_1
# %bb.4:                                # %bb3
	movq	(%rdi), %rax
	lock		subq	$1, (%rax)
	jne	.LBB30_5
# %bb.6:                                # %bb3.i.i.i1
	#MEMBARRIER
	jmp	_ZN5alloc4sync12Arc$LT$T$GT$9drop_slow17h11947988d5165e69E # TAILCALL
.LBB30_1:                               # %bb2
	movq	(%rdi), %rax
	leaq	1(%rax), %rcx
	cmpq	$2, %rcx
	jae	.LBB30_2
.LBB30_5:                               # %bb1
	retq
.LBB30_2:                               # %bb3.i.i.i
	lock		subq	$1, 8(%rax)
	jne	.LBB30_5
# %bb.3:                                # %bb6.i.i.i
	#MEMBARRIER
	movq	(%rdi), %rdi
	movl	$144, %esi
	movl	$8, %edx
	jmpq	*__rust_dealloc@GOTPCREL(%rip) # TAILCALL
.Lfunc_end30:
	.size	_ZN4core3ptr18real_drop_in_place17h26bbc049ccc22ec4E, .Lfunc_end30-_ZN4core3ptr18real_drop_in_place17h26bbc049ccc22ec4E
	.cfi_endproc
                                        # -- End function
	.p2align	4, 0x90         # -- Begin function _ZN4core3ptr18real_drop_in_place17h29f155998742d087E
	.type	_ZN4core3ptr18real_drop_in_place17h29f155998742d087E,@function
_ZN4core3ptr18real_drop_in_place17h29f155998742d087E: # @_ZN4core3ptr18real_drop_in_place17h29f155998742d087E
	.cfi_startproc
# %bb.0:                                # %start
	jmpq	*_ZN64_$LT$std..future..SetOnDrop$u20$as$u20$core..ops..drop..Drop$GT$4drop17h024ba6850ad4d096E@GOTPCREL(%rip) # TAILCALL
.Lfunc_end31:
	.size	_ZN4core3ptr18real_drop_in_place17h29f155998742d087E, .Lfunc_end31-_ZN4core3ptr18real_drop_in_place17h29f155998742d087E
	.cfi_endproc
                                        # -- End function
	.p2align	4, 0x90         # -- Begin function _ZN4core3ptr18real_drop_in_place17h2bad6363e544193aE
	.type	_ZN4core3ptr18real_drop_in_place17h2bad6363e544193aE,@function
_ZN4core3ptr18real_drop_in_place17h2bad6363e544193aE: # @_ZN4core3ptr18real_drop_in_place17h2bad6363e544193aE
	.cfi_startproc
# %bb.0:                                # %start
	jmpq	*_ZN70_$LT$std..sys..unix..fd..FileDesc$u20$as$u20$core..ops..drop..Drop$GT$4drop17hf2b9d188fe38bb32E@GOTPCREL(%rip) # TAILCALL
.Lfunc_end32:
	.size	_ZN4core3ptr18real_drop_in_place17h2bad6363e544193aE, .Lfunc_end32-_ZN4core3ptr18real_drop_in_place17h2bad6363e544193aE
	.cfi_endproc
                                        # -- End function
	.p2align	4, 0x90         # -- Begin function _ZN4core3ptr18real_drop_in_place17h2c3b0f290c9aa1b2E
	.type	_ZN4core3ptr18real_drop_in_place17h2c3b0f290c9aa1b2E,@function
_ZN4core3ptr18real_drop_in_place17h2c3b0f290c9aa1b2E: # @_ZN4core3ptr18real_drop_in_place17h2c3b0f290c9aa1b2E
	.cfi_startproc
# %bb.0:                                # %start
	retq
.Lfunc_end33:
	.size	_ZN4core3ptr18real_drop_in_place17h2c3b0f290c9aa1b2E, .Lfunc_end33-_ZN4core3ptr18real_drop_in_place17h2c3b0f290c9aa1b2E
	.cfi_endproc
                                        # -- End function
	.p2align	4, 0x90         # -- Begin function _ZN4core3ptr18real_drop_in_place17h2c6aabfae917c7e6E
	.type	_ZN4core3ptr18real_drop_in_place17h2c6aabfae917c7e6E,@function
_ZN4core3ptr18real_drop_in_place17h2c6aabfae917c7e6E: # @_ZN4core3ptr18real_drop_in_place17h2c6aabfae917c7e6E
	.cfi_startproc
# %bb.0:                                # %start
	pushq	%r14
	.cfi_def_cfa_offset 16
	pushq	%rbx
	.cfi_def_cfa_offset 24
	pushq	%rax
	.cfi_def_cfa_offset 32
	.cfi_offset %rbx, -24
	.cfi_offset %r14, -16
	movq	%rdi, %rbx
	cmpq	$0, (%rdi)
	movq	8(%rdi), %r14
	movb	16(%rdi), %al
	testb	%al, %al
	jne	.LBB34_3
# %bb.1:                                # %bb3.i.i.i.i
	callq	*_ZN3std9panicking9panicking17hb29bc5349f72a38fE@GOTPCREL(%rip)
	testb	%al, %al
	je	.LBB34_3
# %bb.2:                                # %bb6.i.i.i.i
	movb	$1, 8(%r14)
.LBB34_3:                               # %bb1
	movq	8(%rbx), %rax
	movq	(%rax), %rdi
	addq	$8, %rsp
	.cfi_def_cfa_offset 24
	popq	%rbx
	.cfi_def_cfa_offset 16
	popq	%r14
	.cfi_def_cfa_offset 8
	jmpq	*pthread_mutex_unlock@GOTPCREL(%rip) # TAILCALL
.Lfunc_end34:
	.size	_ZN4core3ptr18real_drop_in_place17h2c6aabfae917c7e6E, .Lfunc_end34-_ZN4core3ptr18real_drop_in_place17h2c6aabfae917c7e6E
	.cfi_endproc
                                        # -- End function
	.p2align	4, 0x90         # -- Begin function _ZN4core3ptr18real_drop_in_place17h2de24b7a29ebf508E
	.type	_ZN4core3ptr18real_drop_in_place17h2de24b7a29ebf508E,@function
_ZN4core3ptr18real_drop_in_place17h2de24b7a29ebf508E: # @_ZN4core3ptr18real_drop_in_place17h2de24b7a29ebf508E
	.cfi_startproc
# %bb.0:                                # %start
	movq	(%rdi), %rdi
	testq	%rdi, %rdi
	je	.LBB35_1
# %bb.2:                                # %bb2
	jmpq	*_ZN5tokio4task3raw7RawTask9drop_task17h698abef7adc201bbE@GOTPCREL(%rip) # TAILCALL
.LBB35_1:                               # %bb1
	retq
.Lfunc_end35:
	.size	_ZN4core3ptr18real_drop_in_place17h2de24b7a29ebf508E, .Lfunc_end35-_ZN4core3ptr18real_drop_in_place17h2de24b7a29ebf508E
	.cfi_endproc
                                        # -- End function
	.p2align	4, 0x90         # -- Begin function _ZN4core3ptr18real_drop_in_place17h314366b4417d5734E
	.type	_ZN4core3ptr18real_drop_in_place17h314366b4417d5734E,@function
_ZN4core3ptr18real_drop_in_place17h314366b4417d5734E: # @_ZN4core3ptr18real_drop_in_place17h314366b4417d5734E
	.cfi_startproc
# %bb.0:                                # %bb4
	movq	8(%rdi), %rsi
	testq	%rsi, %rsi
	je	.LBB36_1
# %bb.2:                                # %bb4.i.i.i
	movq	(%rdi), %rdi
	movl	$1, %edx
	jmpq	*__rust_dealloc@GOTPCREL(%rip) # TAILCALL
.LBB36_1:                               # %_ZN4core3ptr18real_drop_in_place17hfd3237406509f55eE.exit
	retq
.Lfunc_end36:
	.size	_ZN4core3ptr18real_drop_in_place17h314366b4417d5734E, .Lfunc_end36-_ZN4core3ptr18real_drop_in_place17h314366b4417d5734E
	.cfi_endproc
                                        # -- End function
	.p2align	4, 0x90         # -- Begin function _ZN4core3ptr18real_drop_in_place17h31612d391bc71c78E
	.type	_ZN4core3ptr18real_drop_in_place17h31612d391bc71c78E,@function
_ZN4core3ptr18real_drop_in_place17h31612d391bc71c78E: # @_ZN4core3ptr18real_drop_in_place17h31612d391bc71c78E
.Lfunc_begin9:
	.cfi_startproc
	.cfi_personality 3, rust_eh_personality
	.cfi_lsda 3, .Lexception9
# %bb.0:                                # %start
	pushq	%r14
	.cfi_def_cfa_offset 16
	pushq	%rbx
	.cfi_def_cfa_offset 24
	pushq	%rax
	.cfi_def_cfa_offset 32
	.cfi_offset %rbx, -24
	.cfi_offset %r14, -16
	movq	%rdi, %rbx
	movq	8(%rdi), %rax
	lock		subq	$1, (%rax)
	jne	.LBB37_2
# %bb.1:                                # %bb3.i.i.i.i.i
	leaq	8(%rbx), %rdi
	#MEMBARRIER
.Ltmp46:
	callq	_ZN5alloc4sync12Arc$LT$T$GT$9drop_slow17h27122a2f92d5b3e1E
.Ltmp47:
.LBB37_2:                               # %bb4.i.i.i
	movq	16(%rbx), %rdi
	addq	$8, %rsp
	testq	%rdi, %rdi
	je	.LBB37_5
# %bb.3:                                # %bb2.i.i.i.i.i.i
	.cfi_def_cfa_offset 24
	popq	%rbx
	.cfi_def_cfa_offset 16
	popq	%r14
	.cfi_def_cfa_offset 8
	jmpq	*_ZN5tokio4task3raw7RawTask9drop_task17h698abef7adc201bbE@GOTPCREL(%rip) # TAILCALL
.LBB37_5:                               # %_ZN4core3ptr18real_drop_in_place17ha510dadaf4fb1602E.exit
	.cfi_def_cfa_offset 32
	.cfi_def_cfa_offset 24
	popq	%rbx
	.cfi_def_cfa_offset 16
	popq	%r14
	.cfi_def_cfa_offset 8
	retq
.LBB37_4:                               # %cleanup.i.i.i
	.cfi_def_cfa_offset 32
.Ltmp48:
	movq	%rax, %r14
	addq	$16, %rbx
	movq	%rbx, %rdi
	callq	_ZN4core3ptr18real_drop_in_place17h2de24b7a29ebf508E
	movq	%r14, %rdi
	callq	_Unwind_Resume
.Lfunc_end37:
	.size	_ZN4core3ptr18real_drop_in_place17h31612d391bc71c78E, .Lfunc_end37-_ZN4core3ptr18real_drop_in_place17h31612d391bc71c78E
	.cfi_endproc
	.section	.gcc_except_table,"a",@progbits
	.p2align	2
GCC_except_table37:
.Lexception9:
	.byte	255                     # @LPStart Encoding = omit
	.byte	255                     # @TType Encoding = omit
	.byte	1                       # Call site Encoding = uleb128
	.uleb128 .Lcst_end9-.Lcst_begin9
.Lcst_begin9:
	.uleb128 .Ltmp46-.Lfunc_begin9  # >> Call Site 1 <<
	.uleb128 .Ltmp47-.Ltmp46        #   Call between .Ltmp46 and .Ltmp47
	.uleb128 .Ltmp48-.Lfunc_begin9  #     jumps to .Ltmp48
	.byte	0                       #   On action: cleanup
	.uleb128 .Ltmp47-.Lfunc_begin9  # >> Call Site 2 <<
	.uleb128 .Lfunc_end37-.Ltmp47   #   Call between .Ltmp47 and .Lfunc_end37
	.byte	0                       #     has no landing pad
	.byte	0                       #   On action: cleanup
.Lcst_end9:
	.p2align	2
                                        # -- End function
	.text
	.p2align	4, 0x90         # -- Begin function _ZN4core3ptr18real_drop_in_place17h34cd177c93b7022dE
	.type	_ZN4core3ptr18real_drop_in_place17h34cd177c93b7022dE,@function
_ZN4core3ptr18real_drop_in_place17h34cd177c93b7022dE: # @_ZN4core3ptr18real_drop_in_place17h34cd177c93b7022dE
	.cfi_startproc
# %bb.0:                                # %start
	movq	(%rdi), %rax
	testq	%rax, %rax
	je	.LBB38_2
# %bb.1:                                # %bb2
	lock		subq	$1, (%rax)
	jne	.LBB38_2
# %bb.3:                                # %bb3.i.i.i
	#MEMBARRIER
	jmp	_ZN5alloc4sync12Arc$LT$T$GT$9drop_slow17he590ba7b80be8f2aE # TAILCALL
.LBB38_2:                               # %bb1
	retq
.Lfunc_end38:
	.size	_ZN4core3ptr18real_drop_in_place17h34cd177c93b7022dE, .Lfunc_end38-_ZN4core3ptr18real_drop_in_place17h34cd177c93b7022dE
	.cfi_endproc
                                        # -- End function
	.p2align	4, 0x90         # -- Begin function _ZN4core3ptr18real_drop_in_place17h34e8b2af0c545c8bE
	.type	_ZN4core3ptr18real_drop_in_place17h34e8b2af0c545c8bE,@function
_ZN4core3ptr18real_drop_in_place17h34e8b2af0c545c8bE: # @_ZN4core3ptr18real_drop_in_place17h34e8b2af0c545c8bE
	.cfi_startproc
# %bb.0:                                # %bb4
	pushq	%rbx
	.cfi_def_cfa_offset 16
	.cfi_offset %rbx, -16
	movq	%rdi, %rbx
	movq	(%rdi), %rdi
	callq	*pthread_mutex_destroy@GOTPCREL(%rip)
	movq	(%rbx), %rdi
	movl	$40, %esi
	movl	$8, %edx
	popq	%rbx
	.cfi_def_cfa_offset 8
	jmpq	*__rust_dealloc@GOTPCREL(%rip) # TAILCALL
.Lfunc_end39:
	.size	_ZN4core3ptr18real_drop_in_place17h34e8b2af0c545c8bE, .Lfunc_end39-_ZN4core3ptr18real_drop_in_place17h34e8b2af0c545c8bE
	.cfi_endproc
                                        # -- End function
	.p2align	4, 0x90         # -- Begin function _ZN4core3ptr18real_drop_in_place17h3cd02a9edc568febE
	.type	_ZN4core3ptr18real_drop_in_place17h3cd02a9edc568febE,@function
_ZN4core3ptr18real_drop_in_place17h3cd02a9edc568febE: # @_ZN4core3ptr18real_drop_in_place17h3cd02a9edc568febE
.Lfunc_begin10:
	.cfi_startproc
	.cfi_personality 3, rust_eh_personality
	.cfi_lsda 3, .Lexception10
# %bb.0:                                # %start
	pushq	%r14
	.cfi_def_cfa_offset 16
	pushq	%rbx
	.cfi_def_cfa_offset 24
	pushq	%rax
	.cfi_def_cfa_offset 32
	.cfi_offset %rbx, -24
	.cfi_offset %r14, -16
	cmpq	$0, (%rdi)
	je	.LBB40_6
# %bb.1:                                # %bb2
	movq	%rdi, %rbx
	movq	8(%rdi), %rdi
	testq	%rdi, %rdi
	je	.LBB40_6
# %bb.2:                                # %bb2.i.i
	callq	*pthread_mutex_destroy@GOTPCREL(%rip)
	movq	8(%rbx), %rdi
	movl	$40, %esi
	movl	$8, %edx
	callq	*__rust_dealloc@GOTPCREL(%rip)
	movq	24(%rbx), %rdi
	movq	32(%rbx), %rax
.Ltmp49:
	callq	*(%rax)
.Ltmp50:
# %bb.3:                                # %bb3.i.i.i.i.i
	movq	32(%rbx), %rax
	movq	8(%rax), %rsi
	testq	%rsi, %rsi
	je	.LBB40_6
# %bb.4:                                # %bb4.i.i.i.i.i.i
	movq	24(%rbx), %rdi
	movq	16(%rax), %rdx
	addq	$8, %rsp
	.cfi_def_cfa_offset 24
	popq	%rbx
	.cfi_def_cfa_offset 16
	popq	%r14
	.cfi_def_cfa_offset 8
	jmpq	*__rust_dealloc@GOTPCREL(%rip) # TAILCALL
.LBB40_6:                               # %bb1
	.cfi_def_cfa_offset 32
	addq	$8, %rsp
	.cfi_def_cfa_offset 24
	popq	%rbx
	.cfi_def_cfa_offset 16
	popq	%r14
	.cfi_def_cfa_offset 8
	retq
.LBB40_5:                               # %cleanup.i.i.i.i.i
	.cfi_def_cfa_offset 32
.Ltmp51:
	movq	%rax, %r14
	movq	24(%rbx), %rdi
	movq	32(%rbx), %rsi
	callq	_ZN5alloc5alloc8box_free17h39766183111e1fbdE
	movq	%r14, %rdi
	callq	_Unwind_Resume
.Lfunc_end40:
	.size	_ZN4core3ptr18real_drop_in_place17h3cd02a9edc568febE, .Lfunc_end40-_ZN4core3ptr18real_drop_in_place17h3cd02a9edc568febE
	.cfi_endproc
	.section	.gcc_except_table,"a",@progbits
	.p2align	2
GCC_except_table40:
.Lexception10:
	.byte	255                     # @LPStart Encoding = omit
	.byte	255                     # @TType Encoding = omit
	.byte	1                       # Call site Encoding = uleb128
	.uleb128 .Lcst_end10-.Lcst_begin10
.Lcst_begin10:
	.uleb128 .Ltmp49-.Lfunc_begin10 # >> Call Site 1 <<
	.uleb128 .Ltmp50-.Ltmp49        #   Call between .Ltmp49 and .Ltmp50
	.uleb128 .Ltmp51-.Lfunc_begin10 #     jumps to .Ltmp51
	.byte	0                       #   On action: cleanup
	.uleb128 .Ltmp50-.Lfunc_begin10 # >> Call Site 2 <<
	.uleb128 .Lfunc_end40-.Ltmp50   #   Call between .Ltmp50 and .Lfunc_end40
	.byte	0                       #     has no landing pad
	.byte	0                       #   On action: cleanup
.Lcst_end10:
	.p2align	2
                                        # -- End function
	.text
	.p2align	4, 0x90         # -- Begin function _ZN4core3ptr18real_drop_in_place17h3fc5e9ef977b7cf0E
	.type	_ZN4core3ptr18real_drop_in_place17h3fc5e9ef977b7cf0E,@function
_ZN4core3ptr18real_drop_in_place17h3fc5e9ef977b7cf0E: # @_ZN4core3ptr18real_drop_in_place17h3fc5e9ef977b7cf0E
.Lfunc_begin11:
	.cfi_startproc
	.cfi_personality 3, rust_eh_personality
	.cfi_lsda 3, .Lexception11
# %bb.0:                                # %start
	pushq	%rbp
	.cfi_def_cfa_offset 16
	pushq	%r15
	.cfi_def_cfa_offset 24
	pushq	%r14
	.cfi_def_cfa_offset 32
	pushq	%r13
	.cfi_def_cfa_offset 40
	pushq	%r12
	.cfi_def_cfa_offset 48
	pushq	%rbx
	.cfi_def_cfa_offset 56
	subq	$24, %rsp
	.cfi_def_cfa_offset 80
	.cfi_offset %rbx, -56
	.cfi_offset %r12, -48
	.cfi_offset %r13, -40
	.cfi_offset %r14, -32
	.cfi_offset %r15, -24
	.cfi_offset %rbp, -16
	movq	%rdi, %r15
	movq	(%rdi), %rbp
	movq	8(%rdi), %rdi
	movq	16(%r15), %r14
	movq	24(%r15), %r12
	cmpq	%rbp, %rdi
	jae	.LBB41_4
# %bb.1:                                # %bb2.i.i.i
	movq	%rdi, %r13
	cmpq	%rbp, %r12
	jae	.LBB41_6
# %bb.2:                                # %bb4.i.i.i.i.i
.Ltmp68:
	movl	$.Lanon.112aa5216417f3e30cbfa40815f3b444.7, %edi
	movl	$28, %esi
	movl	$.Lanon.112aa5216417f3e30cbfa40815f3b444.6, %edx
	callq	*_ZN4core9panicking5panic17hf3b2e3f8bf85ebd1E@GOTPCREL(%rip)
.Ltmp69:
# %bb.3:                                # %.noexc
.LBB41_4:                               # %bb1.i.i.i.i.i.i
	cmpq	%rdi, %r12
	jb	.LBB41_7
# %bb.5:
	xorl	%r13d, %r13d
	movq	%rdi, %r12
.LBB41_6:                               # %"_ZN5alloc11collections9vec_deque17VecDeque$LT$T$GT$13as_mut_slices17hde81b29a20c22104E.exit.i"
	movq	%r14, 8(%rsp)
	movq	%r13, 16(%rsp)
	shlq	$3, %rbp
	shlq	$3, %r12
	movq	_ZN5tokio4task3raw7RawTask9drop_task17h698abef7adc201bbE@GOTPCREL(%rip), %rbx
	.p2align	4, 0x90
.LBB41_13:                              # %bb11.i.i6.i
                                        # =>This Inner Loop Header: Depth=1
	cmpq	%rbp, %r12
	je	.LBB41_14
# %bb.12:                               # %bb10.i.i.i
                                        #   in Loop: Header=BB41_13 Depth=1
	movq	(%r14,%rbp), %rdi
	addq	$8, %rbp
.Ltmp54:
	callq	*%rbx
.Ltmp55:
	jmp	.LBB41_13
.LBB41_14:                              # %bb3.i
	shlq	$3, %r13
	xorl	%ebp, %ebp
	.p2align	4, 0x90
.LBB41_20:                              # %bb11.i.i.i.i.i
                                        # =>This Inner Loop Header: Depth=1
	cmpq	%rbp, %r13
	je	.LBB41_21
# %bb.19:                               # %bb10.i.i.i.i.i
                                        #   in Loop: Header=BB41_20 Depth=1
	movq	(%r14,%rbp), %rdi
	addq	$8, %rbp
.Ltmp62:
	callq	*%rbx
.Ltmp63:
	jmp	.LBB41_20
.LBB41_21:                              # %bb4
	movq	24(%r15), %rsi
	testq	%rsi, %rsi
	je	.LBB41_26
# %bb.22:                               # %bb4.i.i.i
	movq	16(%r15), %rdi
	shlq	$3, %rsi
	movl	$8, %edx
	addq	$24, %rsp
	.cfi_def_cfa_offset 56
	popq	%rbx
	.cfi_def_cfa_offset 48
	popq	%r12
	.cfi_def_cfa_offset 40
	popq	%r13
	.cfi_def_cfa_offset 32
	popq	%r14
	.cfi_def_cfa_offset 24
	popq	%r15
	.cfi_def_cfa_offset 16
	popq	%rbp
	.cfi_def_cfa_offset 8
	jmpq	*__rust_dealloc@GOTPCREL(%rip) # TAILCALL
.LBB41_26:                              # %_ZN4core3ptr18real_drop_in_place17haac8888775c883d4E.exit
	.cfi_def_cfa_offset 80
	addq	$24, %rsp
	.cfi_def_cfa_offset 56
	popq	%rbx
	.cfi_def_cfa_offset 48
	popq	%r12
	.cfi_def_cfa_offset 40
	popq	%r13
	.cfi_def_cfa_offset 32
	popq	%r14
	.cfi_def_cfa_offset 24
	popq	%r15
	.cfi_def_cfa_offset 16
	popq	%rbp
	.cfi_def_cfa_offset 8
	retq
.LBB41_7:                               # %bb5.i.i.i.i.i.i
	.cfi_def_cfa_offset 80
.Ltmp52:
	movq	%r12, %rsi
	callq	*_ZN4core5slice20slice_index_len_fail17ha58ce2526532f1e6E@GOTPCREL(%rip)
.Ltmp53:
# %bb.8:                                # %.noexc7
.LBB41_23:                              # %cleanup.i.i.i.i.i
.Ltmp64:
	movq	%rax, %rbx
.LBB41_18:                              # %.noexc8
                                        # =>This Inner Loop Header: Depth=1
	cmpq	%rbp, %r13
	je	.LBB41_30
# %bb.16:                               # %bb8.i.i.i.i.i
                                        #   in Loop: Header=BB41_18 Depth=1
	movq	(%r14,%rbp), %rdi
.Ltmp65:
	callq	_ZN4core3ptr18real_drop_in_place17h032bb3b7232478c2E
.Ltmp66:
# %bb.17:                               # %.noexc8
                                        #   in Loop: Header=BB41_18 Depth=1
	addq	$8, %rbp
	jmp	.LBB41_18
.LBB41_27:                              # %cleanup.loopexit
.Ltmp67:
	jmp	.LBB41_29
.LBB41_15:                              # %cleanup.i.i.i
.Ltmp56:
	movq	%rax, %rbx
.LBB41_11:                              # %.noexc.i
                                        # =>This Inner Loop Header: Depth=1
	cmpq	%rbp, %r12
	je	.LBB41_25
# %bb.9:                                # %bb8.i.i.i
                                        #   in Loop: Header=BB41_11 Depth=1
	movq	(%r14,%rbp), %rdi
.Ltmp57:
	callq	_ZN4core3ptr18real_drop_in_place17h032bb3b7232478c2E
.Ltmp58:
# %bb.10:                               # %.noexc.i
                                        #   in Loop: Header=BB41_11 Depth=1
	addq	$8, %rbp
	jmp	.LBB41_11
.LBB41_24:                              # %cleanup.i
.Ltmp59:
	movq	%rax, %rbx
.LBB41_25:                              # %cleanup.body.i
.Ltmp60:
	leaq	8(%rsp), %rdi
	callq	_ZN4core3ptr18real_drop_in_place17h0c5e93ad2f336c64E
.Ltmp61:
.LBB41_30:                              # %cleanup.body
	movq	16(%r15), %rdi
	movq	24(%r15), %rsi
	callq	_ZN4core3ptr18real_drop_in_place17h90d8552239534afaE
	movq	%rbx, %rdi
	callq	_Unwind_Resume
.LBB41_28:                              # %cleanup.loopexit.split-lp
.Ltmp70:
.LBB41_29:                              # %cleanup.body
	movq	%rax, %rbx
	jmp	.LBB41_30
.Lfunc_end41:
	.size	_ZN4core3ptr18real_drop_in_place17h3fc5e9ef977b7cf0E, .Lfunc_end41-_ZN4core3ptr18real_drop_in_place17h3fc5e9ef977b7cf0E
	.cfi_endproc
	.section	.gcc_except_table,"a",@progbits
	.p2align	2
GCC_except_table41:
.Lexception11:
	.byte	255                     # @LPStart Encoding = omit
	.byte	255                     # @TType Encoding = omit
	.byte	1                       # Call site Encoding = uleb128
	.uleb128 .Lcst_end11-.Lcst_begin11
.Lcst_begin11:
	.uleb128 .Ltmp68-.Lfunc_begin11 # >> Call Site 1 <<
	.uleb128 .Ltmp69-.Ltmp68        #   Call between .Ltmp68 and .Ltmp69
	.uleb128 .Ltmp70-.Lfunc_begin11 #     jumps to .Ltmp70
	.byte	0                       #   On action: cleanup
	.uleb128 .Ltmp54-.Lfunc_begin11 # >> Call Site 2 <<
	.uleb128 .Ltmp55-.Ltmp54        #   Call between .Ltmp54 and .Ltmp55
	.uleb128 .Ltmp56-.Lfunc_begin11 #     jumps to .Ltmp56
	.byte	0                       #   On action: cleanup
	.uleb128 .Ltmp62-.Lfunc_begin11 # >> Call Site 3 <<
	.uleb128 .Ltmp63-.Ltmp62        #   Call between .Ltmp62 and .Ltmp63
	.uleb128 .Ltmp64-.Lfunc_begin11 #     jumps to .Ltmp64
	.byte	0                       #   On action: cleanup
	.uleb128 .Ltmp52-.Lfunc_begin11 # >> Call Site 4 <<
	.uleb128 .Ltmp53-.Ltmp52        #   Call between .Ltmp52 and .Ltmp53
	.uleb128 .Ltmp70-.Lfunc_begin11 #     jumps to .Ltmp70
	.byte	0                       #   On action: cleanup
	.uleb128 .Ltmp65-.Lfunc_begin11 # >> Call Site 5 <<
	.uleb128 .Ltmp66-.Ltmp65        #   Call between .Ltmp65 and .Ltmp66
	.uleb128 .Ltmp67-.Lfunc_begin11 #     jumps to .Ltmp67
	.byte	0                       #   On action: cleanup
	.uleb128 .Ltmp57-.Lfunc_begin11 # >> Call Site 6 <<
	.uleb128 .Ltmp58-.Ltmp57        #   Call between .Ltmp57 and .Ltmp58
	.uleb128 .Ltmp59-.Lfunc_begin11 #     jumps to .Ltmp59
	.byte	0                       #   On action: cleanup
	.uleb128 .Ltmp60-.Lfunc_begin11 # >> Call Site 7 <<
	.uleb128 .Ltmp61-.Ltmp60        #   Call between .Ltmp60 and .Ltmp61
	.uleb128 .Ltmp70-.Lfunc_begin11 #     jumps to .Ltmp70
	.byte	0                       #   On action: cleanup
	.uleb128 .Ltmp61-.Lfunc_begin11 # >> Call Site 8 <<
	.uleb128 .Lfunc_end41-.Ltmp61   #   Call between .Ltmp61 and .Lfunc_end41
	.byte	0                       #     has no landing pad
	.byte	0                       #   On action: cleanup
.Lcst_end11:
	.p2align	2
                                        # -- End function
	.text
	.p2align	4, 0x90         # -- Begin function _ZN4core3ptr18real_drop_in_place17h42b179ded7dcfffcE
	.type	_ZN4core3ptr18real_drop_in_place17h42b179ded7dcfffcE,@function
_ZN4core3ptr18real_drop_in_place17h42b179ded7dcfffcE: # @_ZN4core3ptr18real_drop_in_place17h42b179ded7dcfffcE
	.cfi_startproc
# %bb.0:                                # %start
	movq	24(%rdi), %rsi
	testq	%rsi, %rsi
	je	.LBB42_1
# %bb.2:                                # %bb4.i.i.i.i
	movq	16(%rdi), %rdi
	movl	$1, %edx
	jmpq	*__rust_dealloc@GOTPCREL(%rip) # TAILCALL
.LBB42_1:                               # %_ZN4core3ptr18real_drop_in_place17h314366b4417d5734E.exit
	retq
.Lfunc_end42:
	.size	_ZN4core3ptr18real_drop_in_place17h42b179ded7dcfffcE, .Lfunc_end42-_ZN4core3ptr18real_drop_in_place17h42b179ded7dcfffcE
	.cfi_endproc
                                        # -- End function
	.p2align	4, 0x90         # -- Begin function _ZN4core3ptr18real_drop_in_place17h42c5a505e750659bE
	.type	_ZN4core3ptr18real_drop_in_place17h42c5a505e750659bE,@function
_ZN4core3ptr18real_drop_in_place17h42c5a505e750659bE: # @_ZN4core3ptr18real_drop_in_place17h42c5a505e750659bE
	.cfi_startproc
# %bb.0:                                # %start
	movq	(%rdi), %rax
	testq	%rax, %rax
	je	.LBB43_2
# %bb.1:                                # %bb2
	lock		subq	$1, (%rax)
	jne	.LBB43_2
# %bb.3:                                # %bb3.i.i
	#MEMBARRIER
	jmp	_ZN5alloc4sync12Arc$LT$T$GT$9drop_slow17hdf925423c13282e1E # TAILCALL
.LBB43_2:                               # %bb1
	retq
.Lfunc_end43:
	.size	_ZN4core3ptr18real_drop_in_place17h42c5a505e750659bE, .Lfunc_end43-_ZN4core3ptr18real_drop_in_place17h42c5a505e750659bE
	.cfi_endproc
                                        # -- End function
	.p2align	4, 0x90         # -- Begin function _ZN4core3ptr18real_drop_in_place17h455108c36d4b96e1E
	.type	_ZN4core3ptr18real_drop_in_place17h455108c36d4b96e1E,@function
_ZN4core3ptr18real_drop_in_place17h455108c36d4b96e1E: # @_ZN4core3ptr18real_drop_in_place17h455108c36d4b96e1E
.Lfunc_begin12:
	.cfi_startproc
	.cfi_personality 3, rust_eh_personality
	.cfi_lsda 3, .Lexception12
# %bb.0:                                # %start
	pushq	%r14
	.cfi_def_cfa_offset 16
	pushq	%rbx
	.cfi_def_cfa_offset 24
	pushq	%rax
	.cfi_def_cfa_offset 32
	.cfi_offset %rbx, -24
	.cfi_offset %r14, -16
	cmpq	$0, (%rdi)
	je	.LBB44_6
# %bb.1:                                # %bb2
	movq	%rdi, %rbx
	movq	8(%rdi), %rdi
	testq	%rdi, %rdi
	je	.LBB44_6
# %bb.2:                                # %bb2.i
	movq	16(%rbx), %rax
.Ltmp71:
	callq	*(%rax)
.Ltmp72:
# %bb.3:                                # %bb3.i.i
	movq	16(%rbx), %rax
	movq	8(%rax), %rsi
	testq	%rsi, %rsi
	je	.LBB44_6
# %bb.4:                                # %bb4.i.i.i
	movq	8(%rbx), %rdi
	movq	16(%rax), %rdx
	addq	$8, %rsp
	.cfi_def_cfa_offset 24
	popq	%rbx
	.cfi_def_cfa_offset 16
	popq	%r14
	.cfi_def_cfa_offset 8
	jmpq	*__rust_dealloc@GOTPCREL(%rip) # TAILCALL
.LBB44_6:                               # %bb1
	.cfi_def_cfa_offset 32
	addq	$8, %rsp
	.cfi_def_cfa_offset 24
	popq	%rbx
	.cfi_def_cfa_offset 16
	popq	%r14
	.cfi_def_cfa_offset 8
	retq
.LBB44_5:                               # %cleanup.i.i
	.cfi_def_cfa_offset 32
.Ltmp73:
	movq	%rax, %r14
	movq	8(%rbx), %rdi
	movq	16(%rbx), %rsi
	callq	_ZN5alloc5alloc8box_free17h39766183111e1fbdE
	movq	%r14, %rdi
	callq	_Unwind_Resume
.Lfunc_end44:
	.size	_ZN4core3ptr18real_drop_in_place17h455108c36d4b96e1E, .Lfunc_end44-_ZN4core3ptr18real_drop_in_place17h455108c36d4b96e1E
	.cfi_endproc
	.section	.gcc_except_table,"a",@progbits
	.p2align	2
GCC_except_table44:
.Lexception12:
	.byte	255                     # @LPStart Encoding = omit
	.byte	255                     # @TType Encoding = omit
	.byte	1                       # Call site Encoding = uleb128
	.uleb128 .Lcst_end12-.Lcst_begin12
.Lcst_begin12:
	.uleb128 .Ltmp71-.Lfunc_begin12 # >> Call Site 1 <<
	.uleb128 .Ltmp72-.Ltmp71        #   Call between .Ltmp71 and .Ltmp72
	.uleb128 .Ltmp73-.Lfunc_begin12 #     jumps to .Ltmp73
	.byte	0                       #   On action: cleanup
	.uleb128 .Ltmp72-.Lfunc_begin12 # >> Call Site 2 <<
	.uleb128 .Lfunc_end44-.Ltmp72   #   Call between .Ltmp72 and .Lfunc_end44
	.byte	0                       #     has no landing pad
	.byte	0                       #   On action: cleanup
.Lcst_end12:
	.p2align	2
                                        # -- End function
	.text
	.p2align	4, 0x90         # -- Begin function _ZN4core3ptr18real_drop_in_place17h466fb76dfe79443cE
	.type	_ZN4core3ptr18real_drop_in_place17h466fb76dfe79443cE,@function
_ZN4core3ptr18real_drop_in_place17h466fb76dfe79443cE: # @_ZN4core3ptr18real_drop_in_place17h466fb76dfe79443cE
	.cfi_startproc
# %bb.0:                                # %bb5
	pushq	%rbx
	.cfi_def_cfa_offset 16
	.cfi_offset %rbx, -16
	movq	%rdi, %rbx
	movq	(%rdi), %rdi
	callq	*pthread_mutex_destroy@GOTPCREL(%rip)
	movq	(%rbx), %rdi
	movl	$40, %esi
	movl	$8, %edx
	callq	*__rust_dealloc@GOTPCREL(%rip)
	addq	$16, %rbx
	movq	%rbx, %rdi
	popq	%rbx
	.cfi_def_cfa_offset 8
	jmp	_ZN4core3ptr18real_drop_in_place17h3fc5e9ef977b7cf0E # TAILCALL
.Lfunc_end45:
	.size	_ZN4core3ptr18real_drop_in_place17h466fb76dfe79443cE, .Lfunc_end45-_ZN4core3ptr18real_drop_in_place17h466fb76dfe79443cE
	.cfi_endproc
                                        # -- End function
	.p2align	4, 0x90         # -- Begin function _ZN4core3ptr18real_drop_in_place17h47f721620558509eE
	.type	_ZN4core3ptr18real_drop_in_place17h47f721620558509eE,@function
_ZN4core3ptr18real_drop_in_place17h47f721620558509eE: # @_ZN4core3ptr18real_drop_in_place17h47f721620558509eE
.Lfunc_begin13:
	.cfi_startproc
	.cfi_personality 3, rust_eh_personality
	.cfi_lsda 3, .Lexception13
# %bb.0:                                # %start
	pushq	%r14
	.cfi_def_cfa_offset 16
	pushq	%rbx
	.cfi_def_cfa_offset 24
	pushq	%rax
	.cfi_def_cfa_offset 32
	.cfi_offset %rbx, -24
	.cfi_offset %r14, -16
	movq	%rdi, %rbx
.Ltmp74:
	callq	*_ZN79_$LT$tokio..io..registration..Registration$u20$as$u20$core..ops..drop..Drop$GT$4drop17he0fe257dfb231b17E@GOTPCREL(%rip)
.Ltmp75:
# %bb.1:                                # %bb4.i
	movq	(%rbx), %rax
	leaq	1(%rax), %rcx
	cmpq	$2, %rcx
	jae	.LBB46_2
.LBB46_5:                               # %_ZN4core3ptr18real_drop_in_place17h1bb71f698366d10fE.exit
	addq	$8, %rsp
	.cfi_def_cfa_offset 24
	popq	%rbx
	.cfi_def_cfa_offset 16
	popq	%r14
	.cfi_def_cfa_offset 8
	retq
.LBB46_2:                               # %bb3.i.i.i.i
	.cfi_def_cfa_offset 32
	lock		subq	$1, 8(%rax)
	jne	.LBB46_5
# %bb.3:                                # %bb6.i.i.i.i
	#MEMBARRIER
	movq	(%rbx), %rdi
	movl	$144, %esi
	movl	$8, %edx
	addq	$8, %rsp
	.cfi_def_cfa_offset 24
	popq	%rbx
	.cfi_def_cfa_offset 16
	popq	%r14
	.cfi_def_cfa_offset 8
	jmpq	*__rust_dealloc@GOTPCREL(%rip) # TAILCALL
.LBB46_4:                               # %cleanup.i
	.cfi_def_cfa_offset 32
.Ltmp76:
	movq	%rax, %r14
	movq	%rbx, %rdi
	callq	_ZN4core3ptr18real_drop_in_place17hf72921a7bb3322d2E
	movq	%r14, %rdi
	callq	_Unwind_Resume
.Lfunc_end46:
	.size	_ZN4core3ptr18real_drop_in_place17h47f721620558509eE, .Lfunc_end46-_ZN4core3ptr18real_drop_in_place17h47f721620558509eE
	.cfi_endproc
	.section	.gcc_except_table,"a",@progbits
	.p2align	2
GCC_except_table46:
.Lexception13:
	.byte	255                     # @LPStart Encoding = omit
	.byte	255                     # @TType Encoding = omit
	.byte	1                       # Call site Encoding = uleb128
	.uleb128 .Lcst_end13-.Lcst_begin13
.Lcst_begin13:
	.uleb128 .Ltmp74-.Lfunc_begin13 # >> Call Site 1 <<
	.uleb128 .Ltmp75-.Ltmp74        #   Call between .Ltmp74 and .Ltmp75
	.uleb128 .Ltmp76-.Lfunc_begin13 #     jumps to .Ltmp76
	.byte	0                       #   On action: cleanup
	.uleb128 .Ltmp75-.Lfunc_begin13 # >> Call Site 2 <<
	.uleb128 .Lfunc_end46-.Ltmp75   #   Call between .Ltmp75 and .Lfunc_end46
	.byte	0                       #     has no landing pad
	.byte	0                       #   On action: cleanup
.Lcst_end13:
	.p2align	2
                                        # -- End function
	.text
	.p2align	4, 0x90         # -- Begin function _ZN4core3ptr18real_drop_in_place17h4b8193e59cd485a1E
	.type	_ZN4core3ptr18real_drop_in_place17h4b8193e59cd485a1E,@function
_ZN4core3ptr18real_drop_in_place17h4b8193e59cd485a1E: # @_ZN4core3ptr18real_drop_in_place17h4b8193e59cd485a1E
	.cfi_startproc
# %bb.0:                                # %start
	movq	16(%rdi), %rax
	testq	%rax, %rax
	je	.LBB47_1
# %bb.2:                                # %bb2.i.i.i
	movq	8(%rdi), %rdi
	jmpq	*24(%rax)               # TAILCALL
.LBB47_1:                               # %_ZN4core3ptr18real_drop_in_place17ha637d94ffbd9b2f6E.exit
	retq
.Lfunc_end47:
	.size	_ZN4core3ptr18real_drop_in_place17h4b8193e59cd485a1E, .Lfunc_end47-_ZN4core3ptr18real_drop_in_place17h4b8193e59cd485a1E
	.cfi_endproc
                                        # -- End function
	.p2align	4, 0x90         # -- Begin function _ZN4core3ptr18real_drop_in_place17h4f79d343c5965205E
	.type	_ZN4core3ptr18real_drop_in_place17h4f79d343c5965205E,@function
_ZN4core3ptr18real_drop_in_place17h4f79d343c5965205E: # @_ZN4core3ptr18real_drop_in_place17h4f79d343c5965205E
	.cfi_startproc
# %bb.0:                                # %start
	jmpq	*_ZN115_$LT$tokio..runtime..basic_scheduler..BasicScheduler$LT$P$GT$..block_on..Guard$u20$as$u20$core..ops..drop..Drop$GT$4drop17hbbd208e653d590c4E@GOTPCREL(%rip) # TAILCALL
.Lfunc_end48:
	.size	_ZN4core3ptr18real_drop_in_place17h4f79d343c5965205E, .Lfunc_end48-_ZN4core3ptr18real_drop_in_place17h4f79d343c5965205E
	.cfi_endproc
                                        # -- End function
	.p2align	4, 0x90         # -- Begin function _ZN4core3ptr18real_drop_in_place17h5154e662f80429f9E
	.type	_ZN4core3ptr18real_drop_in_place17h5154e662f80429f9E,@function
_ZN4core3ptr18real_drop_in_place17h5154e662f80429f9E: # @_ZN4core3ptr18real_drop_in_place17h5154e662f80429f9E
	.cfi_startproc
# %bb.0:                                # %start
	pushq	%rax
	.cfi_def_cfa_offset 16
	cmpl	$0, (%rdi)
	je	.LBB49_4
# %bb.1:                                # %bb2
	movq	8(%rdi), %rax
	movq	$0, 8(%rdi)
	testq	%rax, %rax
	je	.LBB49_4
# %bb.2:                                # %bb2.i.i
	movq	%rax, (%rsp)
	movq	%rsp, %rdi
	callq	*_ZN5tokio4task3raw7RawTask6header17h887b575297842f2aE@GOTPCREL(%rip)
	movq	%rax, %rdi
	callq	*_ZN5tokio4task5state5State21drop_join_handle_fast17hda3cbd0e3b0dff84E@GOTPCREL(%rip)
	testb	%al, %al
	jne	.LBB49_4
# %bb.3:                                # %bb5.i.i
	movq	(%rsp), %rdi
	callq	*_ZN5tokio4task3raw7RawTask21drop_join_handle_slow17h0a08c8ada2900777E@GOTPCREL(%rip)
.LBB49_4:                               # %bb1
	popq	%rax
	.cfi_def_cfa_offset 8
	retq
.Lfunc_end49:
	.size	_ZN4core3ptr18real_drop_in_place17h5154e662f80429f9E, .Lfunc_end49-_ZN4core3ptr18real_drop_in_place17h5154e662f80429f9E
	.cfi_endproc
                                        # -- End function
	.p2align	4, 0x90         # -- Begin function _ZN4core3ptr18real_drop_in_place17h52b5450cfbc055ffE
	.type	_ZN4core3ptr18real_drop_in_place17h52b5450cfbc055ffE,@function
_ZN4core3ptr18real_drop_in_place17h52b5450cfbc055ffE: # @_ZN4core3ptr18real_drop_in_place17h52b5450cfbc055ffE
.Lfunc_begin14:
	.cfi_startproc
	.cfi_personality 3, rust_eh_personality
	.cfi_lsda 3, .Lexception14
# %bb.0:                                # %start
	pushq	%r15
	.cfi_def_cfa_offset 16
	pushq	%r14
	.cfi_def_cfa_offset 24
	pushq	%r13
	.cfi_def_cfa_offset 32
	pushq	%r12
	.cfi_def_cfa_offset 40
	pushq	%rbx
	.cfi_def_cfa_offset 48
	subq	$80, %rsp
	.cfi_def_cfa_offset 128
	.cfi_offset %rbx, -48
	.cfi_offset %r12, -40
	.cfi_offset %r13, -32
	.cfi_offset %r14, -24
	.cfi_offset %r15, -16
	movq	%rdi, %r13
	movq	(%rdi), %rax
	movq	$0, (%rdi)
	movq	%rax, 56(%rsp)
	movups	8(%rdi), %xmm0
	movups	%xmm0, 64(%rsp)
	cmpq	$1, %rax
	jne	.LBB50_18
# %bb.1:                                # %bb3.i.i
	leaq	64(%rsp), %rax
	movups	(%rax), %xmm0
	movaps	%xmm0, 16(%rsp)
	leaq	24(%r13), %r14
.Ltmp77:
	movq	%r14, %rdi
	callq	*_ZN5tokio2io6driver6Handle5inner17heb68f52174073405E@GOTPCREL(%rip)
.Ltmp78:
# %bb.2:                                # %.noexc.i.i
	movq	%rax, %rbx
	movq	%rax, 48(%rsp)
	testq	%rax, %rax
	je	.LBB50_3
# %bb.6:                                # %bb5.i.i.i
	movq	%rbx, (%rsp)
	movq	%rbx, %rsi
	addq	$16, %rsi
.Ltmp79:
	leaq	32(%rsp), %rdi
	leaq	16(%rsp), %rdx
	movl	$.Lvtable.b, %ecx
	callq	*_ZN5tokio2io6driver5Inner17deregister_source17h6390581a88aedb6eE@GOTPCREL(%rip)
.Ltmp80:
# %bb.7:                                # %bb12.i.i.i
	lock		subq	$1, (%rbx)
	jne	.LBB50_9
# %bb.8:                                # %bb3.i.i.i.i.i
	#MEMBARRIER
.Ltmp84:
	movq	%rsp, %rdi
	callq	_ZN5alloc4sync12Arc$LT$T$GT$9drop_slow17h5d84505ff6cb1dc8E
.Ltmp85:
	jmp	.LBB50_9
.LBB50_3:                               # %bb3.i.i.i
.Ltmp86:
	movl	$.Lanon.112aa5216417f3e30cbfa40815f3b444.13, %edi
	movl	$12, %esi
	callq	*_ZN3std5error161_$LT$impl$u20$core..convert..From$LT$$RF$str$GT$$u20$for$u20$alloc..boxed..Box$LT$dyn$u20$std..error..Error$u2b$core..marker..Sync$u2b$core..marker..Send$GT$$GT$4from17h3380ca6fb4be57d1E@GOTPCREL(%rip)
.Ltmp87:
# %bb.4:                                # %.noexc.i.i.i
	movq	%rdx, %rcx
.Ltmp88:
	movq	%rsp, %rdi
	movl	$16, %esi
	movq	%rax, %rdx
	callq	*_ZN3std2io5error5Error4_new17h9d3cc36308b63b32E@GOTPCREL(%rip)
.Ltmp89:
# %bb.5:                                # %_ZN4core3ptr18real_drop_in_place17h0b30e8d9d34d5f31E.exit.i.i.i
	movups	(%rsp), %xmm0
	movaps	%xmm0, 32(%rsp)
.LBB50_9:                               # %bb4.i.i
	movb	32(%rsp), %al
	cmpb	$3, %al
	ja	.LBB50_11
# %bb.10:                               # %bb4.i.i
	cmpb	$2, %al
	jne	.LBB50_15
.LBB50_11:                              # %bb2.i.i.i.i.i
	movq	40(%rsp), %r12
	movq	(%r12), %rdi
	movq	8(%r12), %rax
.Ltmp94:
	callq	*(%rax)
.Ltmp95:
# %bb.12:                               # %bb3.i.i.i.i.i.i.i.i
	movq	8(%r12), %rax
	movq	8(%rax), %rsi
	testq	%rsi, %rsi
	je	.LBB50_14
# %bb.13:                               # %bb4.i.i.i.i.i.i.i.i.i
	movq	(%r12), %rdi
	movq	16(%rax), %rdx
	callq	*__rust_dealloc@GOTPCREL(%rip)
.LBB50_14:                              # %_ZN4core3ptr18real_drop_in_place17h27b9bb4166fdb623E.exit.i.i.i.i.i
	movl	$24, %esi
	movl	$8, %edx
	movq	%r12, %rdi
	callq	*__rust_dealloc@GOTPCREL(%rip)
.LBB50_15:                              # %bb7.i.i
	leaq	24(%rsp), %rdi
.Ltmp99:
	callq	*_ZN70_$LT$std..sys..unix..fd..FileDesc$u20$as$u20$core..ops..drop..Drop$GT$4drop17hf2b9d188fe38bb32E@GOTPCREL(%rip)
.Ltmp100:
# %bb.16:                               # %bb6.i
	cmpq	$0, (%r13)
	je	.LBB50_18
# %bb.17:                               # %bb2.i.i
	leaq	16(%r13), %rdi
.Ltmp105:
	callq	*_ZN70_$LT$std..sys..unix..fd..FileDesc$u20$as$u20$core..ops..drop..Drop$GT$4drop17hf2b9d188fe38bb32E@GOTPCREL(%rip)
.Ltmp106:
.LBB50_18:                              # %bb5.i
	addq	$24, %r13
.Ltmp108:
	movq	%r13, %rdi
	callq	*_ZN79_$LT$tokio..io..registration..Registration$u20$as$u20$core..ops..drop..Drop$GT$4drop17he0fe257dfb231b17E@GOTPCREL(%rip)
.Ltmp109:
# %bb.19:                               # %bb4.i.i.i
	movq	(%r13), %rax
	leaq	1(%rax), %rcx
	cmpq	$2, %rcx
	jae	.LBB50_20
.LBB50_22:                              # %_ZN4core3ptr18real_drop_in_place17h2ff7e69193ffba22E.exit
	addq	$80, %rsp
	.cfi_def_cfa_offset 48
	popq	%rbx
	.cfi_def_cfa_offset 40
	popq	%r12
	.cfi_def_cfa_offset 32
	popq	%r13
	.cfi_def_cfa_offset 24
	popq	%r14
	.cfi_def_cfa_offset 16
	popq	%r15
	.cfi_def_cfa_offset 8
	retq
.LBB50_20:                              # %bb3.i.i.i.i.i.i
	.cfi_def_cfa_offset 128
	lock		subq	$1, 8(%rax)
	jne	.LBB50_22
# %bb.21:                               # %bb6.i.i.i.i.i.i
	#MEMBARRIER
	movq	(%r13), %rdi
	movl	$144, %esi
	movl	$8, %edx
	callq	*__rust_dealloc@GOTPCREL(%rip)
	jmp	.LBB50_22
.LBB50_25:                              # %cleanup.i.i.i.i.i.i.i.i
.Ltmp96:
	movq	%rax, %r15
                                        # kill: killed $rdx
	movq	(%r12), %rdi
	movq	8(%r12), %rsi
	callq	_ZN5alloc5alloc8box_free17h39766183111e1fbdE
	movq	%r12, %rdi
	callq	_ZN5alloc5alloc8box_free17ha829dafaf86a282fE
	jmp	.LBB50_27
.LBB50_34:                              # %cleanup1.i
.Ltmp107:
	movq	%rax, %r15
	jmp	.LBB50_33
.LBB50_23:                              # %cleanup.i.i.i
.Ltmp81:
	movq	%rax, %r15
                                        # kill: killed $rdx
.Ltmp82:
	movq	%rsp, %rdi
	callq	_ZN4core3ptr18real_drop_in_place17hb67afcbcf1d2d5b8E
.Ltmp83:
	jmp	.LBB50_27
.LBB50_24:                              # %cleanup2.i.i.i
.Ltmp90:
	movq	%rax, %r15
                                        # kill: killed $rdx
.Ltmp91:
	leaq	48(%rsp), %rdi
	callq	_ZN4core3ptr18real_drop_in_place17h0b30e8d9d34d5f31E
.Ltmp92:
	jmp	.LBB50_27
.LBB50_30:                              # %cleanup1.i.i
.Ltmp101:
	movq	%rax, %r15
                                        # kill: killed $rdx
	jmp	.LBB50_28
.LBB50_26:                              # %cleanup.i.i
.Ltmp93:
	movq	%rax, %r15
                                        # kill: killed $rdx
.LBB50_27:                              # %cleanup.body.i.i
.Ltmp97:
	leaq	16(%rsp), %rdi
	callq	_ZN4core3ptr18real_drop_in_place17h1dfbf6d2047bdac8E
.Ltmp98:
.LBB50_28:                              # %bb5.i.i
	cmpl	$1, 56(%rsp)
	je	.LBB50_32
# %bb.29:                               # %bb9.i.i
.Ltmp102:
	leaq	56(%rsp), %rdi
	callq	_ZN4core3ptr18real_drop_in_place17h039a5de4cf8b2434E
.Ltmp103:
.LBB50_32:                              # %cleanup.body.i
	movq	%r13, %rdi
	callq	_ZN4core3ptr18real_drop_in_place17h039a5de4cf8b2434E
.LBB50_33:                              # %bb3.i
	movq	%r14, %rdi
	callq	_ZN4core3ptr18real_drop_in_place17h47f721620558509eE
	movq	%r15, %rdi
	callq	_Unwind_Resume
.LBB50_31:                              # %cleanup.i
.Ltmp104:
	movq	%rax, %r15
	jmp	.LBB50_32
.LBB50_35:                              # %cleanup.i.i9.i
.Ltmp110:
	movq	%rax, %r15
	movq	%r13, %rdi
	callq	_ZN4core3ptr18real_drop_in_place17hf72921a7bb3322d2E
	movq	%r15, %rdi
	callq	_Unwind_Resume
.Lfunc_end50:
	.size	_ZN4core3ptr18real_drop_in_place17h52b5450cfbc055ffE, .Lfunc_end50-_ZN4core3ptr18real_drop_in_place17h52b5450cfbc055ffE
	.cfi_endproc
	.section	.gcc_except_table,"a",@progbits
	.p2align	2
GCC_except_table50:
.Lexception14:
	.byte	255                     # @LPStart Encoding = omit
	.byte	255                     # @TType Encoding = omit
	.byte	1                       # Call site Encoding = uleb128
	.uleb128 .Lcst_end14-.Lcst_begin14
.Lcst_begin14:
	.uleb128 .Ltmp77-.Lfunc_begin14 # >> Call Site 1 <<
	.uleb128 .Ltmp78-.Ltmp77        #   Call between .Ltmp77 and .Ltmp78
	.uleb128 .Ltmp93-.Lfunc_begin14 #     jumps to .Ltmp93
	.byte	0                       #   On action: cleanup
	.uleb128 .Ltmp79-.Lfunc_begin14 # >> Call Site 2 <<
	.uleb128 .Ltmp80-.Ltmp79        #   Call between .Ltmp79 and .Ltmp80
	.uleb128 .Ltmp81-.Lfunc_begin14 #     jumps to .Ltmp81
	.byte	0                       #   On action: cleanup
	.uleb128 .Ltmp84-.Lfunc_begin14 # >> Call Site 3 <<
	.uleb128 .Ltmp85-.Ltmp84        #   Call between .Ltmp84 and .Ltmp85
	.uleb128 .Ltmp93-.Lfunc_begin14 #     jumps to .Ltmp93
	.byte	0                       #   On action: cleanup
	.uleb128 .Ltmp86-.Lfunc_begin14 # >> Call Site 4 <<
	.uleb128 .Ltmp89-.Ltmp86        #   Call between .Ltmp86 and .Ltmp89
	.uleb128 .Ltmp90-.Lfunc_begin14 #     jumps to .Ltmp90
	.byte	0                       #   On action: cleanup
	.uleb128 .Ltmp94-.Lfunc_begin14 # >> Call Site 5 <<
	.uleb128 .Ltmp95-.Ltmp94        #   Call between .Ltmp94 and .Ltmp95
	.uleb128 .Ltmp96-.Lfunc_begin14 #     jumps to .Ltmp96
	.byte	0                       #   On action: cleanup
	.uleb128 .Ltmp99-.Lfunc_begin14 # >> Call Site 6 <<
	.uleb128 .Ltmp100-.Ltmp99       #   Call between .Ltmp99 and .Ltmp100
	.uleb128 .Ltmp101-.Lfunc_begin14 #     jumps to .Ltmp101
	.byte	0                       #   On action: cleanup
	.uleb128 .Ltmp105-.Lfunc_begin14 # >> Call Site 7 <<
	.uleb128 .Ltmp106-.Ltmp105      #   Call between .Ltmp105 and .Ltmp106
	.uleb128 .Ltmp107-.Lfunc_begin14 #     jumps to .Ltmp107
	.byte	0                       #   On action: cleanup
	.uleb128 .Ltmp108-.Lfunc_begin14 # >> Call Site 8 <<
	.uleb128 .Ltmp109-.Ltmp108      #   Call between .Ltmp108 and .Ltmp109
	.uleb128 .Ltmp110-.Lfunc_begin14 #     jumps to .Ltmp110
	.byte	0                       #   On action: cleanup
	.uleb128 .Ltmp82-.Lfunc_begin14 # >> Call Site 9 <<
	.uleb128 .Ltmp92-.Ltmp82        #   Call between .Ltmp82 and .Ltmp92
	.uleb128 .Ltmp93-.Lfunc_begin14 #     jumps to .Ltmp93
	.byte	0                       #   On action: cleanup
	.uleb128 .Ltmp97-.Lfunc_begin14 # >> Call Site 10 <<
	.uleb128 .Ltmp103-.Ltmp97       #   Call between .Ltmp97 and .Ltmp103
	.uleb128 .Ltmp104-.Lfunc_begin14 #     jumps to .Ltmp104
	.byte	0                       #   On action: cleanup
	.uleb128 .Ltmp103-.Lfunc_begin14 # >> Call Site 11 <<
	.uleb128 .Lfunc_end50-.Ltmp103  #   Call between .Ltmp103 and .Lfunc_end50
	.byte	0                       #     has no landing pad
	.byte	0                       #   On action: cleanup
.Lcst_end14:
	.p2align	2
                                        # -- End function
	.text
	.p2align	4, 0x90         # -- Begin function _ZN4core3ptr18real_drop_in_place17h57c7b716786d5f27E
	.type	_ZN4core3ptr18real_drop_in_place17h57c7b716786d5f27E,@function
_ZN4core3ptr18real_drop_in_place17h57c7b716786d5f27E: # @_ZN4core3ptr18real_drop_in_place17h57c7b716786d5f27E
.Lfunc_begin15:
	.cfi_startproc
	.cfi_personality 3, rust_eh_personality
	.cfi_lsda 3, .Lexception15
# %bb.0:                                # %start
	pushq	%r14
	.cfi_def_cfa_offset 16
	pushq	%rbx
	.cfi_def_cfa_offset 24
	pushq	%rax
	.cfi_def_cfa_offset 32
	.cfi_offset %rbx, -24
	.cfi_offset %r14, -16
	movq	%rdi, %rbx
.Ltmp111:
	callq	*_ZN69_$LT$std..sync..condvar..Condvar$u20$as$u20$core..ops..drop..Drop$GT$4drop17h4eee38946b40573cE@GOTPCREL(%rip)
.Ltmp112:
# %bb.1:                                # %bb4
	movq	(%rbx), %rdi
	movl	$48, %esi
	movl	$8, %edx
	addq	$8, %rsp
	.cfi_def_cfa_offset 24
	popq	%rbx
	.cfi_def_cfa_offset 16
	popq	%r14
	.cfi_def_cfa_offset 8
	jmpq	*__rust_dealloc@GOTPCREL(%rip) # TAILCALL
.LBB51_2:                               # %cleanup
	.cfi_def_cfa_offset 32
.Ltmp113:
	movq	%rax, %r14
	movq	%rbx, %rdi
	callq	_ZN4core3ptr18real_drop_in_place17ha6fa1980cd7ce6c6E
	movq	%r14, %rdi
	callq	_Unwind_Resume
.Lfunc_end51:
	.size	_ZN4core3ptr18real_drop_in_place17h57c7b716786d5f27E, .Lfunc_end51-_ZN4core3ptr18real_drop_in_place17h57c7b716786d5f27E
	.cfi_endproc
	.section	.gcc_except_table,"a",@progbits
	.p2align	2
GCC_except_table51:
.Lexception15:
	.byte	255                     # @LPStart Encoding = omit
	.byte	255                     # @TType Encoding = omit
	.byte	1                       # Call site Encoding = uleb128
	.uleb128 .Lcst_end15-.Lcst_begin15
.Lcst_begin15:
	.uleb128 .Ltmp111-.Lfunc_begin15 # >> Call Site 1 <<
	.uleb128 .Ltmp112-.Ltmp111      #   Call between .Ltmp111 and .Ltmp112
	.uleb128 .Ltmp113-.Lfunc_begin15 #     jumps to .Ltmp113
	.byte	0                       #   On action: cleanup
	.uleb128 .Ltmp112-.Lfunc_begin15 # >> Call Site 2 <<
	.uleb128 .Lfunc_end51-.Ltmp112  #   Call between .Ltmp112 and .Lfunc_end51
	.byte	0                       #     has no landing pad
	.byte	0                       #   On action: cleanup
.Lcst_end15:
	.p2align	2
                                        # -- End function
	.text
	.p2align	4, 0x90         # -- Begin function _ZN4core3ptr18real_drop_in_place17h5caf02987c84db7fE
	.type	_ZN4core3ptr18real_drop_in_place17h5caf02987c84db7fE,@function
_ZN4core3ptr18real_drop_in_place17h5caf02987c84db7fE: # @_ZN4core3ptr18real_drop_in_place17h5caf02987c84db7fE
	.cfi_startproc
# %bb.0:                                # %start
	jmpq	*_ZN70_$LT$mio..poll..RegistrationInner$u20$as$u20$core..ops..drop..Drop$GT$4drop17h45090a25a224e339E@GOTPCREL(%rip) # TAILCALL
.Lfunc_end52:
	.size	_ZN4core3ptr18real_drop_in_place17h5caf02987c84db7fE, .Lfunc_end52-_ZN4core3ptr18real_drop_in_place17h5caf02987c84db7fE
	.cfi_endproc
                                        # -- End function
	.p2align	4, 0x90         # -- Begin function _ZN4core3ptr18real_drop_in_place17h664ae0e66d8bb2d1E
	.type	_ZN4core3ptr18real_drop_in_place17h664ae0e66d8bb2d1E,@function
_ZN4core3ptr18real_drop_in_place17h664ae0e66d8bb2d1E: # @_ZN4core3ptr18real_drop_in_place17h664ae0e66d8bb2d1E
.Lfunc_begin16:
	.cfi_startproc
	.cfi_personality 3, rust_eh_personality
	.cfi_lsda 3, .Lexception16
# %bb.0:                                # %start
	pushq	%r15
	.cfi_def_cfa_offset 16
	pushq	%r14
	.cfi_def_cfa_offset 24
	pushq	%rbx
	.cfi_def_cfa_offset 32
	.cfi_offset %rbx, -32
	.cfi_offset %r14, -24
	.cfi_offset %r15, -16
	cmpb	$2, (%rdi)
	jae	.LBB53_1
# %bb.5:                                # %_ZN4core3ptr18real_drop_in_place17h84d8a3b4c84014e2E.exit
	popq	%rbx
	.cfi_def_cfa_offset 24
	popq	%r14
	.cfi_def_cfa_offset 16
	popq	%r15
	.cfi_def_cfa_offset 8
	retq
.LBB53_1:                               # %bb2.i
	.cfi_def_cfa_offset 32
	movq	%rdi, %r15
	movq	8(%rdi), %rbx
	movq	(%rbx), %rdi
	movq	8(%rbx), %rax
.Ltmp114:
	callq	*(%rax)
.Ltmp115:
# %bb.2:                                # %bb3.i.i.i.i
	movq	8(%rbx), %rax
	movq	8(%rax), %rsi
	testq	%rsi, %rsi
	je	.LBB53_4
# %bb.3:                                # %bb4.i.i.i.i.i
	movq	(%rbx), %rdi
	movq	16(%rax), %rdx
	callq	*__rust_dealloc@GOTPCREL(%rip)
.LBB53_4:                               # %_ZN4core3ptr18real_drop_in_place17h27b9bb4166fdb623E.exit.i
	movq	8(%r15), %rdi
	movl	$24, %esi
	movl	$8, %edx
	popq	%rbx
	.cfi_def_cfa_offset 24
	popq	%r14
	.cfi_def_cfa_offset 16
	popq	%r15
	.cfi_def_cfa_offset 8
	jmpq	*__rust_dealloc@GOTPCREL(%rip) # TAILCALL
.LBB53_6:                               # %cleanup.i.i.i.i
	.cfi_def_cfa_offset 32
.Ltmp116:
	movq	%rax, %r14
	movq	(%rbx), %rdi
	movq	8(%rbx), %rsi
	callq	_ZN5alloc5alloc8box_free17h39766183111e1fbdE
	movq	8(%r15), %rdi
	callq	_ZN5alloc5alloc8box_free17ha829dafaf86a282fE
	movq	%r14, %rdi
	callq	_Unwind_Resume
.Lfunc_end53:
	.size	_ZN4core3ptr18real_drop_in_place17h664ae0e66d8bb2d1E, .Lfunc_end53-_ZN4core3ptr18real_drop_in_place17h664ae0e66d8bb2d1E
	.cfi_endproc
	.section	.gcc_except_table,"a",@progbits
	.p2align	2
GCC_except_table53:
.Lexception16:
	.byte	255                     # @LPStart Encoding = omit
	.byte	255                     # @TType Encoding = omit
	.byte	1                       # Call site Encoding = uleb128
	.uleb128 .Lcst_end16-.Lcst_begin16
.Lcst_begin16:
	.uleb128 .Ltmp114-.Lfunc_begin16 # >> Call Site 1 <<
	.uleb128 .Ltmp115-.Ltmp114      #   Call between .Ltmp114 and .Ltmp115
	.uleb128 .Ltmp116-.Lfunc_begin16 #     jumps to .Ltmp116
	.byte	0                       #   On action: cleanup
	.uleb128 .Ltmp115-.Lfunc_begin16 # >> Call Site 2 <<
	.uleb128 .Lfunc_end53-.Ltmp115  #   Call between .Ltmp115 and .Lfunc_end53
	.byte	0                       #     has no landing pad
	.byte	0                       #   On action: cleanup
.Lcst_end16:
	.p2align	2
                                        # -- End function
	.text
	.p2align	4, 0x90         # -- Begin function _ZN4core3ptr18real_drop_in_place17h66967e7ef667e5e9E
	.type	_ZN4core3ptr18real_drop_in_place17h66967e7ef667e5e9E,@function
_ZN4core3ptr18real_drop_in_place17h66967e7ef667e5e9E: # @_ZN4core3ptr18real_drop_in_place17h66967e7ef667e5e9E
	.cfi_startproc
# %bb.0:                                # %start
	pushq	%r14
	.cfi_def_cfa_offset 16
	pushq	%rbx
	.cfi_def_cfa_offset 24
	pushq	%rax
	.cfi_def_cfa_offset 32
	.cfi_offset %rbx, -24
	.cfi_offset %r14, -16
	movq	%rdi, %rbx
	cmpb	$0, 8(%rdi)
	jne	.LBB54_3
# %bb.1:                                # %bb3.i.i.i
	movq	(%rbx), %r14
	callq	*_ZN3std9panicking9panicking17hb29bc5349f72a38fE@GOTPCREL(%rip)
	testb	%al, %al
	je	.LBB54_3
# %bb.2:                                # %bb6.i.i.i
	movb	$1, 8(%r14)
.LBB54_3:                               # %_ZN4core3ptr18real_drop_in_place17h17386eb751d7fc4eE.exit
	movq	(%rbx), %rax
	movq	(%rax), %rdi
	addq	$8, %rsp
	.cfi_def_cfa_offset 24
	popq	%rbx
	.cfi_def_cfa_offset 16
	popq	%r14
	.cfi_def_cfa_offset 8
	jmpq	*pthread_mutex_unlock@GOTPCREL(%rip) # TAILCALL
.Lfunc_end54:
	.size	_ZN4core3ptr18real_drop_in_place17h66967e7ef667e5e9E, .Lfunc_end54-_ZN4core3ptr18real_drop_in_place17h66967e7ef667e5e9E
	.cfi_endproc
                                        # -- End function
	.p2align	4, 0x90         # -- Begin function _ZN4core3ptr18real_drop_in_place17h66e229bae9518afeE
	.type	_ZN4core3ptr18real_drop_in_place17h66e229bae9518afeE,@function
_ZN4core3ptr18real_drop_in_place17h66e229bae9518afeE: # @_ZN4core3ptr18real_drop_in_place17h66e229bae9518afeE
.Lfunc_begin17:
	.cfi_startproc
	.cfi_personality 3, rust_eh_personality
	.cfi_lsda 3, .Lexception17
# %bb.0:                                # %start
	pushq	%r14
	.cfi_def_cfa_offset 16
	pushq	%rbx
	.cfi_def_cfa_offset 24
	pushq	%rax
	.cfi_def_cfa_offset 32
	.cfi_offset %rbx, -24
	.cfi_offset %r14, -16
	movq	%rdi, %rbx
	movq	(%rdi), %rdi
	testq	%rdi, %rdi
	je	.LBB55_5
# %bb.1:                                # %bb2
	movq	8(%rbx), %rax
.Ltmp117:
	callq	*(%rax)
.Ltmp118:
# %bb.2:                                # %bb3.i
	movq	8(%rbx), %rax
	movq	8(%rax), %rsi
	testq	%rsi, %rsi
	je	.LBB55_5
# %bb.3:                                # %bb4.i.i
	movq	(%rbx), %rdi
	movq	16(%rax), %rdx
	addq	$8, %rsp
	.cfi_def_cfa_offset 24
	popq	%rbx
	.cfi_def_cfa_offset 16
	popq	%r14
	.cfi_def_cfa_offset 8
	jmpq	*__rust_dealloc@GOTPCREL(%rip) # TAILCALL
.LBB55_5:                               # %bb1
	.cfi_def_cfa_offset 32
	addq	$8, %rsp
	.cfi_def_cfa_offset 24
	popq	%rbx
	.cfi_def_cfa_offset 16
	popq	%r14
	.cfi_def_cfa_offset 8
	retq
.LBB55_4:                               # %cleanup.i
	.cfi_def_cfa_offset 32
.Ltmp119:
	movq	%rax, %r14
	movq	(%rbx), %rdi
	movq	8(%rbx), %rsi
	callq	_ZN5alloc5alloc8box_free17h39766183111e1fbdE
	movq	%r14, %rdi
	callq	_Unwind_Resume
.Lfunc_end55:
	.size	_ZN4core3ptr18real_drop_in_place17h66e229bae9518afeE, .Lfunc_end55-_ZN4core3ptr18real_drop_in_place17h66e229bae9518afeE
	.cfi_endproc
	.section	.gcc_except_table,"a",@progbits
	.p2align	2
GCC_except_table55:
.Lexception17:
	.byte	255                     # @LPStart Encoding = omit
	.byte	255                     # @TType Encoding = omit
	.byte	1                       # Call site Encoding = uleb128
	.uleb128 .Lcst_end17-.Lcst_begin17
.Lcst_begin17:
	.uleb128 .Ltmp117-.Lfunc_begin17 # >> Call Site 1 <<
	.uleb128 .Ltmp118-.Ltmp117      #   Call between .Ltmp117 and .Ltmp118
	.uleb128 .Ltmp119-.Lfunc_begin17 #     jumps to .Ltmp119
	.byte	0                       #   On action: cleanup
	.uleb128 .Ltmp118-.Lfunc_begin17 # >> Call Site 2 <<
	.uleb128 .Lfunc_end55-.Ltmp118  #   Call between .Ltmp118 and .Lfunc_end55
	.byte	0                       #     has no landing pad
	.byte	0                       #   On action: cleanup
.Lcst_end17:
	.p2align	2
                                        # -- End function
	.text
	.p2align	4, 0x90         # -- Begin function _ZN4core3ptr18real_drop_in_place17h691669770397616fE
	.type	_ZN4core3ptr18real_drop_in_place17h691669770397616fE,@function
_ZN4core3ptr18real_drop_in_place17h691669770397616fE: # @_ZN4core3ptr18real_drop_in_place17h691669770397616fE
	.cfi_startproc
# %bb.0:                                # %start
	movq	(%rdi), %rax
	cmpq	$1, %rax
	je	.LBB56_3
# %bb.1:                                # %start
	testq	%rax, %rax
	je	.LBB56_2
# %bb.5:                                # %bb3
	movq	8(%rdi), %rax
	lock		subq	$1, (%rax)
	jne	.LBB56_2
# %bb.6:                                # %bb3.i.i.i4
	addq	$8, %rdi
	#MEMBARRIER
	jmp	_ZN5alloc4sync12Arc$LT$T$GT$9drop_slow17hbcd17717d774df8bE # TAILCALL
.LBB56_3:                               # %bb2
	movq	8(%rdi), %rax
	lock		subq	$1, (%rax)
	jne	.LBB56_2
# %bb.4:                                # %bb3.i.i.i
	addq	$8, %rdi
	#MEMBARRIER
	jmp	_ZN5alloc4sync12Arc$LT$T$GT$9drop_slow17h9b2e2fe3654c86e4E # TAILCALL
.LBB56_2:                               # %bb1
	retq
.Lfunc_end56:
	.size	_ZN4core3ptr18real_drop_in_place17h691669770397616fE, .Lfunc_end56-_ZN4core3ptr18real_drop_in_place17h691669770397616fE
	.cfi_endproc
                                        # -- End function
	.p2align	4, 0x90         # -- Begin function _ZN4core3ptr18real_drop_in_place17h6a1b919391b771b5E
	.type	_ZN4core3ptr18real_drop_in_place17h6a1b919391b771b5E,@function
_ZN4core3ptr18real_drop_in_place17h6a1b919391b771b5E: # @_ZN4core3ptr18real_drop_in_place17h6a1b919391b771b5E
	.cfi_startproc
# %bb.0:                                # %start
	movq	(%rdi), %rax
	lock		subq	$1, (%rax)
	jne	.LBB57_1
# %bb.2:                                # %bb3.i
	#MEMBARRIER
	jmp	_ZN5alloc4sync12Arc$LT$T$GT$9drop_slow17h9da3ed3bbf13a0f5E # TAILCALL
.LBB57_1:                               # %"_ZN67_$LT$alloc..sync..Arc$LT$T$GT$$u20$as$u20$core..ops..drop..Drop$GT$4drop17h203bbea02d7e2a24E.exit"
	retq
.Lfunc_end57:
	.size	_ZN4core3ptr18real_drop_in_place17h6a1b919391b771b5E, .Lfunc_end57-_ZN4core3ptr18real_drop_in_place17h6a1b919391b771b5E
	.cfi_endproc
                                        # -- End function
	.p2align	4, 0x90         # -- Begin function _ZN4core3ptr18real_drop_in_place17h6aa61a8176e62ef4E
	.type	_ZN4core3ptr18real_drop_in_place17h6aa61a8176e62ef4E,@function
_ZN4core3ptr18real_drop_in_place17h6aa61a8176e62ef4E: # @_ZN4core3ptr18real_drop_in_place17h6aa61a8176e62ef4E
	.cfi_startproc
# %bb.0:                                # %start
	pushq	%rbx
	.cfi_def_cfa_offset 16
	.cfi_offset %rbx, -16
	movq	%rdi, %rbx
	movq	8(%rdi), %rdi
	callq	*pthread_mutex_destroy@GOTPCREL(%rip)
	movq	8(%rbx), %rdi
	movl	$40, %esi
	movl	$8, %edx
	callq	*__rust_dealloc@GOTPCREL(%rip)
	movq	32(%rbx), %rsi
	testq	%rsi, %rsi
	je	.LBB58_1
# %bb.2:                                # %bb4.i.i.i.i.i.i
	movq	24(%rbx), %rdi
	shlq	$3, %rsi
	movl	$8, %edx
	popq	%rbx
	.cfi_def_cfa_offset 8
	jmpq	*__rust_dealloc@GOTPCREL(%rip) # TAILCALL
.LBB58_1:                               # %_ZN4core3ptr18real_drop_in_place17hb3e81a9042209f22E.exit
	.cfi_def_cfa_offset 16
	popq	%rbx
	.cfi_def_cfa_offset 8
	retq
.Lfunc_end58:
	.size	_ZN4core3ptr18real_drop_in_place17h6aa61a8176e62ef4E, .Lfunc_end58-_ZN4core3ptr18real_drop_in_place17h6aa61a8176e62ef4E
	.cfi_endproc
                                        # -- End function
	.p2align	4, 0x90         # -- Begin function _ZN4core3ptr18real_drop_in_place17h6ac5afa1bd86ed5cE
	.type	_ZN4core3ptr18real_drop_in_place17h6ac5afa1bd86ed5cE,@function
_ZN4core3ptr18real_drop_in_place17h6ac5afa1bd86ed5cE: # @_ZN4core3ptr18real_drop_in_place17h6ac5afa1bd86ed5cE
.Lfunc_begin18:
	.cfi_startproc
	.cfi_personality 3, rust_eh_personality
	.cfi_lsda 3, .Lexception18
# %bb.0:                                # %start
	pushq	%r14
	.cfi_def_cfa_offset 16
	pushq	%rbx
	.cfi_def_cfa_offset 24
	pushq	%rax
	.cfi_def_cfa_offset 32
	.cfi_offset %rbx, -24
	.cfi_offset %r14, -16
	movq	%rdi, %rbx
.Ltmp120:
	callq	*_ZN65_$LT$mio..poll..Registration$u20$as$u20$core..ops..drop..Drop$GT$4drop17hbe158bb9c1ab5543E@GOTPCREL(%rip)
.Ltmp121:
# %bb.1:                                # %bb4
	movq	%rbx, %rdi
	addq	$8, %rsp
	.cfi_def_cfa_offset 24
	popq	%rbx
	.cfi_def_cfa_offset 16
	popq	%r14
	.cfi_def_cfa_offset 8
	jmpq	*_ZN70_$LT$mio..poll..RegistrationInner$u20$as$u20$core..ops..drop..Drop$GT$4drop17h45090a25a224e339E@GOTPCREL(%rip) # TAILCALL
.LBB59_2:                               # %cleanup
	.cfi_def_cfa_offset 32
.Ltmp122:
	movq	%rax, %r14
	movq	%rbx, %rdi
	callq	_ZN4core3ptr18real_drop_in_place17h5caf02987c84db7fE
	movq	%r14, %rdi
	callq	_Unwind_Resume
.Lfunc_end59:
	.size	_ZN4core3ptr18real_drop_in_place17h6ac5afa1bd86ed5cE, .Lfunc_end59-_ZN4core3ptr18real_drop_in_place17h6ac5afa1bd86ed5cE
	.cfi_endproc
	.section	.gcc_except_table,"a",@progbits
	.p2align	2
GCC_except_table59:
.Lexception18:
	.byte	255                     # @LPStart Encoding = omit
	.byte	255                     # @TType Encoding = omit
	.byte	1                       # Call site Encoding = uleb128
	.uleb128 .Lcst_end18-.Lcst_begin18
.Lcst_begin18:
	.uleb128 .Ltmp120-.Lfunc_begin18 # >> Call Site 1 <<
	.uleb128 .Ltmp121-.Ltmp120      #   Call between .Ltmp120 and .Ltmp121
	.uleb128 .Ltmp122-.Lfunc_begin18 #     jumps to .Ltmp122
	.byte	0                       #   On action: cleanup
	.uleb128 .Ltmp121-.Lfunc_begin18 # >> Call Site 2 <<
	.uleb128 .Lfunc_end59-.Ltmp121  #   Call between .Ltmp121 and .Lfunc_end59
	.byte	0                       #     has no landing pad
	.byte	0                       #   On action: cleanup
.Lcst_end18:
	.p2align	2
                                        # -- End function
	.text
	.p2align	4, 0x90         # -- Begin function _ZN4core3ptr18real_drop_in_place17h6ad18ef181805c70E
	.type	_ZN4core3ptr18real_drop_in_place17h6ad18ef181805c70E,@function
_ZN4core3ptr18real_drop_in_place17h6ad18ef181805c70E: # @_ZN4core3ptr18real_drop_in_place17h6ad18ef181805c70E
	.cfi_startproc
# %bb.0:                                # %start
	cmpl	$3, (%rdi)
	jne	.LBB60_2
# %bb.1:                                # %bb1
	retq
.LBB60_2:                               # %bb2
	jmp	_ZN4core3ptr18real_drop_in_place17he00dcfa818232a3eE # TAILCALL
.Lfunc_end60:
	.size	_ZN4core3ptr18real_drop_in_place17h6ad18ef181805c70E, .Lfunc_end60-_ZN4core3ptr18real_drop_in_place17h6ad18ef181805c70E
	.cfi_endproc
                                        # -- End function
	.p2align	4, 0x90         # -- Begin function _ZN4core3ptr18real_drop_in_place17h6bec50ca570047d9E
	.type	_ZN4core3ptr18real_drop_in_place17h6bec50ca570047d9E,@function
_ZN4core3ptr18real_drop_in_place17h6bec50ca570047d9E: # @_ZN4core3ptr18real_drop_in_place17h6bec50ca570047d9E
	.cfi_startproc
# %bb.0:                                # %start
	movq	(%rdi), %rax
	testq	%rax, %rax
	je	.LBB61_2
# %bb.1:                                # %bb2
	lock		subq	$1, (%rax)
	jne	.LBB61_2
# %bb.3:                                # %bb3.i.i
	#MEMBARRIER
	jmp	_ZN5alloc4sync12Arc$LT$T$GT$9drop_slow17hce72188c7ef7cdffE # TAILCALL
.LBB61_2:                               # %bb1
	retq
.Lfunc_end61:
	.size	_ZN4core3ptr18real_drop_in_place17h6bec50ca570047d9E, .Lfunc_end61-_ZN4core3ptr18real_drop_in_place17h6bec50ca570047d9E
	.cfi_endproc
                                        # -- End function
	.p2align	4, 0x90         # -- Begin function _ZN4core3ptr18real_drop_in_place17h7adc16293b341271E
	.type	_ZN4core3ptr18real_drop_in_place17h7adc16293b341271E,@function
_ZN4core3ptr18real_drop_in_place17h7adc16293b341271E: # @_ZN4core3ptr18real_drop_in_place17h7adc16293b341271E
	.cfi_startproc
# %bb.0:                                # %start
	pushq	%rax
	.cfi_def_cfa_offset 16
	cmpl	$3, 72(%rdi)
	jne	.LBB62_5
# %bb.1:                                # %bb12.i
	cmpl	$0, 32(%rdi)
	je	.LBB62_5
# %bb.2:                                # %bb2.i.i
	movq	40(%rdi), %rax
	movq	$0, 40(%rdi)
	testq	%rax, %rax
	je	.LBB62_5
# %bb.3:                                # %bb2.i.i.i.i
	movq	%rax, (%rsp)
	movq	%rsp, %rdi
	callq	*_ZN5tokio4task3raw7RawTask6header17h887b575297842f2aE@GOTPCREL(%rip)
	movq	%rax, %rdi
	callq	*_ZN5tokio4task5state5State21drop_join_handle_fast17hda3cbd0e3b0dff84E@GOTPCREL(%rip)
	testb	%al, %al
	jne	.LBB62_5
# %bb.4:                                # %bb5.i.i.i.i
	movq	(%rsp), %rdi
	callq	*_ZN5tokio4task3raw7RawTask21drop_join_handle_slow17h0a08c8ada2900777E@GOTPCREL(%rip)
.LBB62_5:                               # %_ZN4core3ptr18real_drop_in_place17hf00f322d9e323da6E.exit
	popq	%rax
	.cfi_def_cfa_offset 8
	retq
.Lfunc_end62:
	.size	_ZN4core3ptr18real_drop_in_place17h7adc16293b341271E, .Lfunc_end62-_ZN4core3ptr18real_drop_in_place17h7adc16293b341271E
	.cfi_endproc
                                        # -- End function
	.p2align	4, 0x90         # -- Begin function _ZN4core3ptr18real_drop_in_place17h7d623c73fcbe815dE
	.type	_ZN4core3ptr18real_drop_in_place17h7d623c73fcbe815dE,@function
_ZN4core3ptr18real_drop_in_place17h7d623c73fcbe815dE: # @_ZN4core3ptr18real_drop_in_place17h7d623c73fcbe815dE
	.cfi_startproc
# %bb.0:                                # %start
	movq	(%rdi), %rax
	lock		subq	$1, (%rax)
	jne	.LBB63_1
# %bb.2:                                # %bb3.i
	#MEMBARRIER
	jmp	_ZN5alloc4sync12Arc$LT$T$GT$9drop_slow17h9b2e2fe3654c86e4E # TAILCALL
.LBB63_1:                               # %"_ZN67_$LT$alloc..sync..Arc$LT$T$GT$$u20$as$u20$core..ops..drop..Drop$GT$4drop17hd4a462d8c71cf916E.exit"
	retq
.Lfunc_end63:
	.size	_ZN4core3ptr18real_drop_in_place17h7d623c73fcbe815dE, .Lfunc_end63-_ZN4core3ptr18real_drop_in_place17h7d623c73fcbe815dE
	.cfi_endproc
                                        # -- End function
	.p2align	4, 0x90         # -- Begin function _ZN4core3ptr18real_drop_in_place17h7fdbf070a286670aE
	.type	_ZN4core3ptr18real_drop_in_place17h7fdbf070a286670aE,@function
_ZN4core3ptr18real_drop_in_place17h7fdbf070a286670aE: # @_ZN4core3ptr18real_drop_in_place17h7fdbf070a286670aE
.Lfunc_begin19:
	.cfi_startproc
	.cfi_personality 3, rust_eh_personality
	.cfi_lsda 3, .Lexception19
# %bb.0:                                # %start
	pushq	%r15
	.cfi_def_cfa_offset 16
	pushq	%r14
	.cfi_def_cfa_offset 24
	pushq	%r13
	.cfi_def_cfa_offset 32
	pushq	%r12
	.cfi_def_cfa_offset 40
	pushq	%rbx
	.cfi_def_cfa_offset 48
	.cfi_offset %rbx, -48
	.cfi_offset %r12, -40
	.cfi_offset %r13, -32
	.cfi_offset %r14, -24
	.cfi_offset %r15, -16
	movq	24(%rdi), %r15
	testq	%r15, %r15
	je	.LBB64_23
# %bb.1:                                # %bb2.i.i.i
	movq	%rdi, %r12
	movq	32(%rdi), %r13
	testq	%r13, %r13
	je	.LBB64_23
# %bb.2:                                # %bb10.preheader.i.i.i.i.i
	shlq	$6, %r13
	xorl	%ebx, %ebx
	movq	_ZN86_$LT$tokio..io..driver..scheduled_io..ScheduledIo$u20$as$u20$core..ops..drop..Drop$GT$4drop17h0f6da5c3897a82caE@GOTPCREL(%rip), %r14
	jmp	.LBB64_3
	.p2align	4, 0x90
.LBB64_8:                               # %_ZN4core3ptr18real_drop_in_place17hec17986a815092ecE.exit.i.i.i.i.i
                                        #   in Loop: Header=BB64_3 Depth=1
	addq	$64, %rbx
	cmpq	%rbx, %r13
	je	.LBB64_9
.LBB64_3:                               # %bb10.i.i.i.i.i
                                        # =>This Inner Loop Header: Depth=1
	leaq	(%r15,%rbx), %rdi
	addq	$8, %rdi
.Ltmp123:
	callq	*%r14
.Ltmp124:
# %bb.4:                                # %bb6.i.i.i.i.i.i.i
                                        #   in Loop: Header=BB64_3 Depth=1
	movq	32(%r15,%rbx), %rax
	testq	%rax, %rax
	je	.LBB64_6
# %bb.5:                                # %bb2.i.i.i.i10.i.i.i.i.i.i.i
                                        #   in Loop: Header=BB64_3 Depth=1
	movq	24(%r15,%rbx), %rdi
.Ltmp128:
	callq	*24(%rax)
.Ltmp129:
.LBB64_6:                               # %bb5.i.i.i.i.i.i.i
                                        #   in Loop: Header=BB64_3 Depth=1
	movq	56(%r15,%rbx), %rax
	testq	%rax, %rax
	je	.LBB64_8
# %bb.7:                                # %bb2.i.i.i.i.i.i.i.i.i.i.i
                                        #   in Loop: Header=BB64_3 Depth=1
	movq	48(%r15,%rbx), %rdi
.Ltmp134:
	callq	*24(%rax)
.Ltmp135:
	jmp	.LBB64_8
.LBB64_9:                               # %bb3.i.i.i.i
	movq	32(%r12), %rsi
	shlq	$6, %rsi
	je	.LBB64_23
# %bb.10:                               # %bb4.i.i.i.i.i
	movq	24(%r12), %rdi
	movl	$8, %edx
	popq	%rbx
	.cfi_def_cfa_offset 40
	popq	%r12
	.cfi_def_cfa_offset 32
	popq	%r13
	.cfi_def_cfa_offset 24
	popq	%r14
	.cfi_def_cfa_offset 16
	popq	%r15
	.cfi_def_cfa_offset 8
	jmpq	*__rust_dealloc@GOTPCREL(%rip) # TAILCALL
.LBB64_23:                              # %_ZN4core3ptr18real_drop_in_place17hb27fb0c9e6fe59a4E.exit
	.cfi_def_cfa_offset 48
	popq	%rbx
	.cfi_def_cfa_offset 40
	popq	%r12
	.cfi_def_cfa_offset 32
	popq	%r13
	.cfi_def_cfa_offset 24
	popq	%r14
	.cfi_def_cfa_offset 16
	popq	%r15
	.cfi_def_cfa_offset 8
	retq
.LBB64_16:                              # %cleanup.loopexit.i.i.i.i.i
	.cfi_def_cfa_offset 48
.Ltmp136:
.LBB64_18:                              # %cleanup.body.i.i.i.i.i
	movq	%rax, %r14
	jmp	.LBB64_19
.LBB64_13:                              # %cleanup1.i.i.i.i.i.i.i
.Ltmp130:
	movq	%rax, %r14
	jmp	.LBB64_14
.LBB64_15:                              # %cleanup.i.i.i.i.i.i.i
.Ltmp125:
	movq	%rax, %r14
	leaq	(%r15,%rbx), %rdi
	addq	$16, %rdi
.Ltmp126:
	callq	_ZN4core3ptr18real_drop_in_place17h4b8193e59cd485a1E
.Ltmp127:
.LBB64_14:                              # %bb3.i.i.i.i.i.i.i
	leaq	(%r15,%rbx), %rdi
	addq	$40, %rdi
.Ltmp131:
	callq	_ZN4core3ptr18real_drop_in_place17h4b8193e59cd485a1E
.Ltmp132:
.LBB64_19:                              # %cleanup.body.i.i.i.i.i
	leaq	-64(%r13), %rax
	cmpq	%rbx, %rax
	je	.LBB64_22
# %bb.20:
	subq	%rbx, %r13
	addq	$-64, %r13
	addq	%rbx, %r15
	addq	$64, %r15
.LBB64_11:                              # %bb8.i.i.i.i.i
                                        # =>This Inner Loop Header: Depth=1
.Ltmp137:
	movq	%r15, %rdi
	callq	_ZN4core3ptr18real_drop_in_place17hec17986a815092ecE
.Ltmp138:
# %bb.12:                               # %.noexc.i.i.i.i
                                        #   in Loop: Header=BB64_11 Depth=1
	addq	$64, %r15
	addq	$-64, %r13
	jne	.LBB64_11
.LBB64_22:                              # %cleanup.body.i.i.i.i
	movq	24(%r12), %rdi
	movq	32(%r12), %rsi
	callq	_ZN5alloc5alloc8box_free17h98ac21c208ff1c57E
	movq	%r14, %rdi
	callq	_Unwind_Resume
.LBB64_21:                              # %cleanup.i.i.i.i
.Ltmp139:
	movq	%rax, %r14
	jmp	.LBB64_22
.LBB64_17:                              # %cleanup.loopexit.split-lp.i.i.i.i.i
.Ltmp133:
	jmp	.LBB64_18
.Lfunc_end64:
	.size	_ZN4core3ptr18real_drop_in_place17h7fdbf070a286670aE, .Lfunc_end64-_ZN4core3ptr18real_drop_in_place17h7fdbf070a286670aE
	.cfi_endproc
	.section	.gcc_except_table,"a",@progbits
	.p2align	2
GCC_except_table64:
.Lexception19:
	.byte	255                     # @LPStart Encoding = omit
	.byte	255                     # @TType Encoding = omit
	.byte	1                       # Call site Encoding = uleb128
	.uleb128 .Lcst_end19-.Lcst_begin19
.Lcst_begin19:
	.uleb128 .Ltmp123-.Lfunc_begin19 # >> Call Site 1 <<
	.uleb128 .Ltmp124-.Ltmp123      #   Call between .Ltmp123 and .Ltmp124
	.uleb128 .Ltmp125-.Lfunc_begin19 #     jumps to .Ltmp125
	.byte	0                       #   On action: cleanup
	.uleb128 .Ltmp128-.Lfunc_begin19 # >> Call Site 2 <<
	.uleb128 .Ltmp129-.Ltmp128      #   Call between .Ltmp128 and .Ltmp129
	.uleb128 .Ltmp130-.Lfunc_begin19 #     jumps to .Ltmp130
	.byte	0                       #   On action: cleanup
	.uleb128 .Ltmp134-.Lfunc_begin19 # >> Call Site 3 <<
	.uleb128 .Ltmp135-.Ltmp134      #   Call between .Ltmp134 and .Ltmp135
	.uleb128 .Ltmp136-.Lfunc_begin19 #     jumps to .Ltmp136
	.byte	0                       #   On action: cleanup
	.uleb128 .Ltmp126-.Lfunc_begin19 # >> Call Site 4 <<
	.uleb128 .Ltmp132-.Ltmp126      #   Call between .Ltmp126 and .Ltmp132
	.uleb128 .Ltmp133-.Lfunc_begin19 #     jumps to .Ltmp133
	.byte	0                       #   On action: cleanup
	.uleb128 .Ltmp137-.Lfunc_begin19 # >> Call Site 5 <<
	.uleb128 .Ltmp138-.Ltmp137      #   Call between .Ltmp137 and .Ltmp138
	.uleb128 .Ltmp139-.Lfunc_begin19 #     jumps to .Ltmp139
	.byte	0                       #   On action: cleanup
	.uleb128 .Ltmp138-.Lfunc_begin19 # >> Call Site 6 <<
	.uleb128 .Lfunc_end64-.Ltmp138  #   Call between .Ltmp138 and .Lfunc_end64
	.byte	0                       #     has no landing pad
	.byte	0                       #   On action: cleanup
.Lcst_end19:
	.p2align	2
                                        # -- End function
	.text
	.p2align	4, 0x90         # -- Begin function _ZN4core3ptr18real_drop_in_place17h801f84abd31e57b7E
	.type	_ZN4core3ptr18real_drop_in_place17h801f84abd31e57b7E,@function
_ZN4core3ptr18real_drop_in_place17h801f84abd31e57b7E: # @_ZN4core3ptr18real_drop_in_place17h801f84abd31e57b7E
	.cfi_startproc
# %bb.0:                                # %start
	retq
.Lfunc_end65:
	.size	_ZN4core3ptr18real_drop_in_place17h801f84abd31e57b7E, .Lfunc_end65-_ZN4core3ptr18real_drop_in_place17h801f84abd31e57b7E
	.cfi_endproc
                                        # -- End function
	.p2align	4, 0x90         # -- Begin function _ZN4core3ptr18real_drop_in_place17h81ef323e0c51fdcbE
	.type	_ZN4core3ptr18real_drop_in_place17h81ef323e0c51fdcbE,@function
_ZN4core3ptr18real_drop_in_place17h81ef323e0c51fdcbE: # @_ZN4core3ptr18real_drop_in_place17h81ef323e0c51fdcbE
.Lfunc_begin20:
	.cfi_startproc
	.cfi_personality 3, rust_eh_personality
	.cfi_lsda 3, .Lexception20
# %bb.0:                                # %start
	pushq	%r14
	.cfi_def_cfa_offset 16
	pushq	%rbx
	.cfi_def_cfa_offset 24
	pushq	%rax
	.cfi_def_cfa_offset 32
	.cfi_offset %rbx, -24
	.cfi_offset %r14, -16
	movq	%rdi, %rbx
	addq	$8, %rdi
	cmpq	$0, (%rbx)
	je	.LBB66_1
# %bb.7:                                # %bb3
	movq	(%rdi), %rax
	lock		subq	$1, (%rax)
	jne	.LBB66_11
# %bb.8:                                # %bb3.i.i.i4
	#MEMBARRIER
	addq	$8, %rsp
	.cfi_def_cfa_offset 24
	popq	%rbx
	.cfi_def_cfa_offset 16
	popq	%r14
	.cfi_def_cfa_offset 8
	jmp	_ZN5alloc4sync12Arc$LT$T$GT$9drop_slow17h11947988d5165e69E # TAILCALL
.LBB66_1:                               # %bb2
	.cfi_def_cfa_offset 32
	movq	16(%rbx), %rax
	testq	%rax, %rax
	je	.LBB66_3
# %bb.2:                                # %bb4.i.i.i.i.i.i.i
	movq	(%rdi), %rdi
	shlq	$2, %rax
	leaq	(%rax,%rax,2), %rsi
	movl	$1, %edx
	callq	*__rust_dealloc@GOTPCREL(%rip)
.LBB66_3:                               # %bb6.i
	movq	32(%rbx), %rax
	lock		subq	$1, (%rax)
	jne	.LBB66_5
# %bb.4:                                # %bb3.i.i.i
	leaq	32(%rbx), %rdi
	#MEMBARRIER
.Ltmp140:
	callq	_ZN5alloc4sync12Arc$LT$T$GT$9drop_slow17h5d84505ff6cb1dc8E
.Ltmp141:
.LBB66_5:                               # %bb5.i
	addq	$40, %rbx
.Ltmp143:
	movq	%rbx, %rdi
	callq	*_ZN65_$LT$mio..poll..Registration$u20$as$u20$core..ops..drop..Drop$GT$4drop17hbe158bb9c1ab5543E@GOTPCREL(%rip)
.Ltmp144:
# %bb.6:                                # %_ZN4core3ptr18real_drop_in_place17ha3f35c9d9cd9d3ecE.exit
	movq	%rbx, %rdi
	addq	$8, %rsp
	.cfi_def_cfa_offset 24
	popq	%rbx
	.cfi_def_cfa_offset 16
	popq	%r14
	.cfi_def_cfa_offset 8
	jmpq	*_ZN70_$LT$mio..poll..RegistrationInner$u20$as$u20$core..ops..drop..Drop$GT$4drop17h45090a25a224e339E@GOTPCREL(%rip) # TAILCALL
.LBB66_11:                              # %bb1
	.cfi_def_cfa_offset 32
	addq	$8, %rsp
	.cfi_def_cfa_offset 24
	popq	%rbx
	.cfi_def_cfa_offset 16
	popq	%r14
	.cfi_def_cfa_offset 8
	retq
.LBB66_9:                               # %bb3.i
	.cfi_def_cfa_offset 32
.Ltmp142:
	movq	%rax, %r14
	addq	$40, %rbx
	movq	%rbx, %rdi
	callq	_ZN4core3ptr18real_drop_in_place17h6ac5afa1bd86ed5cE
	movq	%r14, %rdi
	callq	_Unwind_Resume
.LBB66_12:                              # %cleanup.i.i
.Ltmp145:
	movq	%rax, %r14
	movq	%rbx, %rdi
	callq	_ZN4core3ptr18real_drop_in_place17h5caf02987c84db7fE
	movq	%r14, %rdi
	callq	_Unwind_Resume
.Lfunc_end66:
	.size	_ZN4core3ptr18real_drop_in_place17h81ef323e0c51fdcbE, .Lfunc_end66-_ZN4core3ptr18real_drop_in_place17h81ef323e0c51fdcbE
	.cfi_endproc
	.section	.gcc_except_table,"a",@progbits
	.p2align	2
GCC_except_table66:
.Lexception20:
	.byte	255                     # @LPStart Encoding = omit
	.byte	255                     # @TType Encoding = omit
	.byte	1                       # Call site Encoding = uleb128
	.uleb128 .Lcst_end20-.Lcst_begin20
.Lcst_begin20:
	.uleb128 .Lfunc_begin20-.Lfunc_begin20 # >> Call Site 1 <<
	.uleb128 .Ltmp140-.Lfunc_begin20 #   Call between .Lfunc_begin20 and .Ltmp140
	.byte	0                       #     has no landing pad
	.byte	0                       #   On action: cleanup
	.uleb128 .Ltmp140-.Lfunc_begin20 # >> Call Site 2 <<
	.uleb128 .Ltmp141-.Ltmp140      #   Call between .Ltmp140 and .Ltmp141
	.uleb128 .Ltmp142-.Lfunc_begin20 #     jumps to .Ltmp142
	.byte	0                       #   On action: cleanup
	.uleb128 .Ltmp143-.Lfunc_begin20 # >> Call Site 3 <<
	.uleb128 .Ltmp144-.Ltmp143      #   Call between .Ltmp143 and .Ltmp144
	.uleb128 .Ltmp145-.Lfunc_begin20 #     jumps to .Ltmp145
	.byte	0                       #   On action: cleanup
	.uleb128 .Ltmp144-.Lfunc_begin20 # >> Call Site 4 <<
	.uleb128 .Lfunc_end66-.Ltmp144  #   Call between .Ltmp144 and .Lfunc_end66
	.byte	0                       #     has no landing pad
	.byte	0                       #   On action: cleanup
.Lcst_end20:
	.p2align	2
                                        # -- End function
	.text
	.p2align	4, 0x90         # -- Begin function _ZN4core3ptr18real_drop_in_place17h897c32c5c49535c6E
	.type	_ZN4core3ptr18real_drop_in_place17h897c32c5c49535c6E,@function
_ZN4core3ptr18real_drop_in_place17h897c32c5c49535c6E: # @_ZN4core3ptr18real_drop_in_place17h897c32c5c49535c6E
	.cfi_startproc
# %bb.0:                                # %start
	movq	(%rdi), %rax
	cmpq	$3, %rax
	je	.LBB67_3
# %bb.1:                                # %start
	cmpl	$1, %eax
	je	.LBB67_4
# %bb.2:                                # %start
	testq	%rax, %rax
	je	.LBB67_3
# %bb.6:                                # %bb3.i
	movq	8(%rdi), %rax
	lock		subq	$1, (%rax)
	jne	.LBB67_3
# %bb.7:                                # %bb3.i.i.i4.i
	addq	$8, %rdi
	#MEMBARRIER
	jmp	_ZN5alloc4sync12Arc$LT$T$GT$9drop_slow17hbcd17717d774df8bE # TAILCALL
.LBB67_4:                               # %bb2.i
	movq	8(%rdi), %rax
	lock		subq	$1, (%rax)
	jne	.LBB67_3
# %bb.5:                                # %bb3.i.i.i.i
	addq	$8, %rdi
	#MEMBARRIER
	jmp	_ZN5alloc4sync12Arc$LT$T$GT$9drop_slow17h9b2e2fe3654c86e4E # TAILCALL
.LBB67_3:                               # %bb1
	retq
.Lfunc_end67:
	.size	_ZN4core3ptr18real_drop_in_place17h897c32c5c49535c6E, .Lfunc_end67-_ZN4core3ptr18real_drop_in_place17h897c32c5c49535c6E
	.cfi_endproc
                                        # -- End function
	.p2align	4, 0x90         # -- Begin function _ZN4core3ptr18real_drop_in_place17h8d31eaf3f74d642fE
	.type	_ZN4core3ptr18real_drop_in_place17h8d31eaf3f74d642fE,@function
_ZN4core3ptr18real_drop_in_place17h8d31eaf3f74d642fE: # @_ZN4core3ptr18real_drop_in_place17h8d31eaf3f74d642fE
	.cfi_startproc
# %bb.0:                                # %start
	pushq	%rbx
	.cfi_def_cfa_offset 16
	.cfi_offset %rbx, -16
	movl	128(%rdi), %eax
	cmpq	$5, %rax
	ja	.LBB68_5
# %bb.1:                                # %start
	movq	%rdi, %rbx
	jmpq	*.LJTI68_0(,%rax,8)
.LBB68_8:                               # %bb28.i
	movq	160(%rbx), %rsi
	testq	%rsi, %rsi
	je	.LBB68_6
# %bb.9:                                # %bb4.i.i.i.i.i38.i
	movq	152(%rbx), %rdi
	jmp	.LBB68_10
.LBB68_11:                              # %bb29.i
	movq	144(%rbx), %rsi
	testq	%rsi, %rsi
	je	.LBB68_6
# %bb.12:                               # %bb4.i.i.i.i.i43.i
	movq	136(%rbx), %rdi
.LBB68_10:                              # %bb12.i
	movl	$1, %edx
	callq	*__rust_dealloc@GOTPCREL(%rip)
.LBB68_6:                               # %bb12.i
	movq	112(%rbx), %rsi
	testq	%rsi, %rsi
	je	.LBB68_2
# %bb.7:                                # %bb4.i.i.i.i.i.i
	movq	104(%rbx), %rdi
	movl	$1, %edx
	callq	*__rust_dealloc@GOTPCREL(%rip)
.LBB68_2:                               # %bb4.i
	movq	80(%rbx), %rsi
	testq	%rsi, %rsi
	je	.LBB68_4
# %bb.3:                                # %bb4.i.i.i.i
	movq	72(%rbx), %rdi
	movl	$1, %edx
	callq	*__rust_dealloc@GOTPCREL(%rip)
.LBB68_4:                               # %bb26.i
	movq	%rbx, %rdi
	callq	_ZN4core3ptr18real_drop_in_place17h52b5450cfbc055ffE
.LBB68_5:                               # %_ZN4core3ptr18real_drop_in_place17h97839a405d040727E.exit
	popq	%rbx
	.cfi_def_cfa_offset 8
	retq
.Lfunc_end68:
	.size	_ZN4core3ptr18real_drop_in_place17h8d31eaf3f74d642fE, .Lfunc_end68-_ZN4core3ptr18real_drop_in_place17h8d31eaf3f74d642fE
	.cfi_endproc
	.section	.rodata,"a",@progbits
	.p2align	3
.LJTI68_0:
	.quad	.LBB68_4
	.quad	.LBB68_5
	.quad	.LBB68_5
	.quad	.LBB68_2
	.quad	.LBB68_8
	.quad	.LBB68_11
                                        # -- End function
	.text
	.p2align	4, 0x90         # -- Begin function _ZN4core3ptr18real_drop_in_place17h90d8552239534afaE
	.type	_ZN4core3ptr18real_drop_in_place17h90d8552239534afaE,@function
_ZN4core3ptr18real_drop_in_place17h90d8552239534afaE: # @_ZN4core3ptr18real_drop_in_place17h90d8552239534afaE
	.cfi_startproc
# %bb.0:                                # %start
	testq	%rsi, %rsi
	je	.LBB69_1
# %bb.2:                                # %bb4.i.i
	shlq	$3, %rsi
	movl	$8, %edx
	jmpq	*__rust_dealloc@GOTPCREL(%rip) # TAILCALL
.LBB69_1:                               # %"_ZN77_$LT$alloc..raw_vec..RawVec$LT$T$C$A$GT$$u20$as$u20$core..ops..drop..Drop$GT$4drop17h8ff23a8caf48dd54E.exit"
	retq
.Lfunc_end69:
	.size	_ZN4core3ptr18real_drop_in_place17h90d8552239534afaE, .Lfunc_end69-_ZN4core3ptr18real_drop_in_place17h90d8552239534afaE
	.cfi_endproc
                                        # -- End function
	.p2align	4, 0x90         # -- Begin function _ZN4core3ptr18real_drop_in_place17h98054c6ad867e3d0E
	.type	_ZN4core3ptr18real_drop_in_place17h98054c6ad867e3d0E,@function
_ZN4core3ptr18real_drop_in_place17h98054c6ad867e3d0E: # @_ZN4core3ptr18real_drop_in_place17h98054c6ad867e3d0E
	.cfi_startproc
# %bb.0:                                # %start
	movq	(%rdi), %rax
	cmpq	$2, %rax
	jne	.LBB70_1
# %bb.3:                                # %bb1
	retq
.LBB70_1:                               # %bb2
	addq	$8, %rdi
	testq	%rax, %rax
	je	.LBB70_4
# %bb.2:                                # %bb3.i
	jmp	_ZN4core3ptr18real_drop_in_place17h664ae0e66d8bb2d1E # TAILCALL
.LBB70_4:                               # %bb2.i
	jmp	_ZN4core3ptr18real_drop_in_place17h52b5450cfbc055ffE # TAILCALL
.Lfunc_end70:
	.size	_ZN4core3ptr18real_drop_in_place17h98054c6ad867e3d0E, .Lfunc_end70-_ZN4core3ptr18real_drop_in_place17h98054c6ad867e3d0E
	.cfi_endproc
                                        # -- End function
	.p2align	4, 0x90         # -- Begin function _ZN4core3ptr18real_drop_in_place17ha34e7f3e5c4d81c1E
	.type	_ZN4core3ptr18real_drop_in_place17ha34e7f3e5c4d81c1E,@function
_ZN4core3ptr18real_drop_in_place17ha34e7f3e5c4d81c1E: # @_ZN4core3ptr18real_drop_in_place17ha34e7f3e5c4d81c1E
.Lfunc_begin21:
	.cfi_startproc
	.cfi_personality 3, rust_eh_personality
	.cfi_lsda 3, .Lexception21
# %bb.0:                                # %start
	pushq	%r15
	.cfi_def_cfa_offset 16
	pushq	%r14
	.cfi_def_cfa_offset 24
	pushq	%r13
	.cfi_def_cfa_offset 32
	pushq	%r12
	.cfi_def_cfa_offset 40
	pushq	%rbx
	.cfi_def_cfa_offset 48
	.cfi_offset %rbx, -48
	.cfi_offset %r12, -40
	.cfi_offset %r13, -32
	.cfi_offset %r14, -24
	.cfi_offset %r15, -16
	movq	8(%rdi), %r13
	testq	%r13, %r13
	je	.LBB71_17
# %bb.1:                                # %bb10.preheader.i
	movq	%rdi, %r12
	movq	(%rdi), %r15
	shlq	$7, %r13
	xorl	%ebx, %ebx
	movq	_ZN5tokio4task3raw7RawTask9drop_task17h698abef7adc201bbE@GOTPCREL(%rip), %r14
	jmp	.LBB71_2
	.p2align	4, 0x90
.LBB71_6:                               # %_ZN4core3ptr18real_drop_in_place17h31612d391bc71c78E.exit.i
                                        #   in Loop: Header=BB71_2 Depth=1
	subq	$-128, %rbx
	cmpq	%rbx, %r13
	je	.LBB71_7
.LBB71_2:                               # %bb10.i
                                        # =>This Inner Loop Header: Depth=1
	movq	8(%r15,%rbx), %rax
	lock		subq	$1, (%rax)
	jne	.LBB71_4
# %bb.3:                                # %bb3.i.i.i.i.i.i.i
                                        #   in Loop: Header=BB71_2 Depth=1
	leaq	(%r15,%rbx), %rdi
	addq	$8, %rdi
	#MEMBARRIER
.Ltmp146:
	callq	_ZN5alloc4sync12Arc$LT$T$GT$9drop_slow17h27122a2f92d5b3e1E
.Ltmp147:
.LBB71_4:                               # %bb4.i.i.i.i.i
                                        #   in Loop: Header=BB71_2 Depth=1
	movq	16(%r15,%rbx), %rdi
	testq	%rdi, %rdi
	je	.LBB71_6
# %bb.5:                                # %bb2.i.i.i.i.i.i.i.i
                                        #   in Loop: Header=BB71_2 Depth=1
.Ltmp152:
	callq	*%r14
.Ltmp153:
	jmp	.LBB71_6
.LBB71_7:                               # %bb3
	movq	8(%r12), %rsi
	shlq	$7, %rsi
	je	.LBB71_17
# %bb.8:                                # %bb4.i
	movq	(%r12), %rdi
	movl	$128, %edx
	popq	%rbx
	.cfi_def_cfa_offset 40
	popq	%r12
	.cfi_def_cfa_offset 32
	popq	%r13
	.cfi_def_cfa_offset 24
	popq	%r14
	.cfi_def_cfa_offset 16
	popq	%r15
	.cfi_def_cfa_offset 8
	jmpq	*__rust_dealloc@GOTPCREL(%rip) # TAILCALL
.LBB71_17:                              # %_ZN5alloc5alloc8box_free17hb071a4daabbfbecaE.exit
	.cfi_def_cfa_offset 48
	popq	%rbx
	.cfi_def_cfa_offset 40
	popq	%r12
	.cfi_def_cfa_offset 32
	popq	%r13
	.cfi_def_cfa_offset 24
	popq	%r14
	.cfi_def_cfa_offset 16
	popq	%r15
	.cfi_def_cfa_offset 8
	retq
.LBB71_11:                              # %cleanup.i.i.i.i.i
	.cfi_def_cfa_offset 48
.Ltmp148:
	movq	%rax, %r14
	leaq	(%r15,%rbx), %rdi
	addq	$16, %rdi
.Ltmp149:
	callq	_ZN4core3ptr18real_drop_in_place17h2de24b7a29ebf508E
.Ltmp150:
	jmp	.LBB71_15
.LBB71_13:                              # %cleanup.loopexit.split-lp.i
.Ltmp151:
	jmp	.LBB71_14
.LBB71_12:                              # %cleanup.loopexit.i
.Ltmp154:
.LBB71_14:                              # %cleanup.body.i
	movq	%rax, %r14
.LBB71_15:                              # %cleanup.body.i
	leaq	-128(%r13), %rax
	cmpq	%rbx, %rax
	je	.LBB71_19
# %bb.16:
	subq	%rbx, %r13
	addq	$-128, %r13
	addq	%rbx, %r15
	addq	$128, %r15
.LBB71_9:                               # %bb8.i
                                        # =>This Inner Loop Header: Depth=1
.Ltmp155:
	movq	%r15, %rdi
	callq	_ZN4core3ptr18real_drop_in_place17h31612d391bc71c78E
.Ltmp156:
# %bb.10:                               # %.noexc
                                        #   in Loop: Header=BB71_9 Depth=1
	subq	$-128, %r15
	addq	$-128, %r13
	jne	.LBB71_9
.LBB71_19:                              # %cleanup.body
	movq	(%r12), %rdi
	movq	8(%r12), %rsi
	callq	_ZN5alloc5alloc8box_free17hb071a4daabbfbecaE
	movq	%r14, %rdi
	callq	_Unwind_Resume
.LBB71_18:                              # %cleanup
.Ltmp157:
	movq	%rax, %r14
	jmp	.LBB71_19
.Lfunc_end71:
	.size	_ZN4core3ptr18real_drop_in_place17ha34e7f3e5c4d81c1E, .Lfunc_end71-_ZN4core3ptr18real_drop_in_place17ha34e7f3e5c4d81c1E
	.cfi_endproc
	.section	.gcc_except_table,"a",@progbits
	.p2align	2
GCC_except_table71:
.Lexception21:
	.byte	255                     # @LPStart Encoding = omit
	.byte	255                     # @TType Encoding = omit
	.byte	1                       # Call site Encoding = uleb128
	.uleb128 .Lcst_end21-.Lcst_begin21
.Lcst_begin21:
	.uleb128 .Ltmp146-.Lfunc_begin21 # >> Call Site 1 <<
	.uleb128 .Ltmp147-.Ltmp146      #   Call between .Ltmp146 and .Ltmp147
	.uleb128 .Ltmp148-.Lfunc_begin21 #     jumps to .Ltmp148
	.byte	0                       #   On action: cleanup
	.uleb128 .Ltmp152-.Lfunc_begin21 # >> Call Site 2 <<
	.uleb128 .Ltmp153-.Ltmp152      #   Call between .Ltmp152 and .Ltmp153
	.uleb128 .Ltmp154-.Lfunc_begin21 #     jumps to .Ltmp154
	.byte	0                       #   On action: cleanup
	.uleb128 .Ltmp149-.Lfunc_begin21 # >> Call Site 3 <<
	.uleb128 .Ltmp150-.Ltmp149      #   Call between .Ltmp149 and .Ltmp150
	.uleb128 .Ltmp151-.Lfunc_begin21 #     jumps to .Ltmp151
	.byte	0                       #   On action: cleanup
	.uleb128 .Ltmp155-.Lfunc_begin21 # >> Call Site 4 <<
	.uleb128 .Ltmp156-.Ltmp155      #   Call between .Ltmp155 and .Ltmp156
	.uleb128 .Ltmp157-.Lfunc_begin21 #     jumps to .Ltmp157
	.byte	0                       #   On action: cleanup
	.uleb128 .Ltmp156-.Lfunc_begin21 # >> Call Site 5 <<
	.uleb128 .Lfunc_end71-.Ltmp156  #   Call between .Ltmp156 and .Lfunc_end71
	.byte	0                       #     has no landing pad
	.byte	0                       #   On action: cleanup
.Lcst_end21:
	.p2align	2
                                        # -- End function
	.text
	.p2align	4, 0x90         # -- Begin function _ZN4core3ptr18real_drop_in_place17ha3a3ed0fa0316897E
	.type	_ZN4core3ptr18real_drop_in_place17ha3a3ed0fa0316897E,@function
_ZN4core3ptr18real_drop_in_place17ha3a3ed0fa0316897E: # @_ZN4core3ptr18real_drop_in_place17ha3a3ed0fa0316897E
	.cfi_startproc
# %bb.0:                                # %start
	jmpq	*_ZN56_$LT$std..io..Guard$u20$as$u20$core..ops..drop..Drop$GT$4drop17h9d646c2a3ad901faE@GOTPCREL(%rip) # TAILCALL
.Lfunc_end72:
	.size	_ZN4core3ptr18real_drop_in_place17ha3a3ed0fa0316897E, .Lfunc_end72-_ZN4core3ptr18real_drop_in_place17ha3a3ed0fa0316897E
	.cfi_endproc
                                        # -- End function
	.p2align	4, 0x90         # -- Begin function _ZN4core3ptr18real_drop_in_place17ha4eaf2372c827098E
	.type	_ZN4core3ptr18real_drop_in_place17ha4eaf2372c827098E,@function
_ZN4core3ptr18real_drop_in_place17ha4eaf2372c827098E: # @_ZN4core3ptr18real_drop_in_place17ha4eaf2372c827098E
.Lfunc_begin22:
	.cfi_startproc
	.cfi_personality 3, rust_eh_personality
	.cfi_lsda 3, .Lexception22
# %bb.0:                                # %start
	pushq	%r15
	.cfi_def_cfa_offset 16
	pushq	%r14
	.cfi_def_cfa_offset 24
	pushq	%r13
	.cfi_def_cfa_offset 32
	pushq	%r12
	.cfi_def_cfa_offset 40
	pushq	%rbx
	.cfi_def_cfa_offset 48
	subq	$80, %rsp
	.cfi_def_cfa_offset 128
	.cfi_offset %rbx, -48
	.cfi_offset %r12, -40
	.cfi_offset %r13, -32
	.cfi_offset %r14, -24
	.cfi_offset %r15, -16
	movq	%rdi, %r13
	movq	(%rdi), %rax
	movq	$0, (%rdi)
	movq	%rax, 56(%rsp)
	movups	8(%rdi), %xmm0
	movups	%xmm0, 64(%rsp)
	cmpq	$1, %rax
	jne	.LBB73_18
# %bb.1:                                # %bb3.i.i
	leaq	64(%rsp), %rax
	movups	(%rax), %xmm0
	movaps	%xmm0, 16(%rsp)
	leaq	24(%r13), %r14
.Ltmp158:
	movq	%r14, %rdi
	callq	*_ZN5tokio2io6driver6Handle5inner17heb68f52174073405E@GOTPCREL(%rip)
.Ltmp159:
# %bb.2:                                # %.noexc.i.i
	movq	%rax, %rbx
	movq	%rax, 48(%rsp)
	testq	%rax, %rax
	je	.LBB73_3
# %bb.6:                                # %bb5.i.i.i
	movq	%rbx, (%rsp)
	movq	%rbx, %rsi
	addq	$16, %rsi
.Ltmp160:
	leaq	32(%rsp), %rdi
	leaq	16(%rsp), %rdx
	movl	$.Lvtable.a, %ecx
	callq	*_ZN5tokio2io6driver5Inner17deregister_source17h6390581a88aedb6eE@GOTPCREL(%rip)
.Ltmp161:
# %bb.7:                                # %bb12.i.i.i
	lock		subq	$1, (%rbx)
	jne	.LBB73_9
# %bb.8:                                # %bb3.i.i.i.i.i
	#MEMBARRIER
.Ltmp165:
	movq	%rsp, %rdi
	callq	_ZN5alloc4sync12Arc$LT$T$GT$9drop_slow17h5d84505ff6cb1dc8E
.Ltmp166:
	jmp	.LBB73_9
.LBB73_3:                               # %bb3.i.i.i
.Ltmp167:
	movl	$.Lanon.112aa5216417f3e30cbfa40815f3b444.13, %edi
	movl	$12, %esi
	callq	*_ZN3std5error161_$LT$impl$u20$core..convert..From$LT$$RF$str$GT$$u20$for$u20$alloc..boxed..Box$LT$dyn$u20$std..error..Error$u2b$core..marker..Sync$u2b$core..marker..Send$GT$$GT$4from17h3380ca6fb4be57d1E@GOTPCREL(%rip)
.Ltmp168:
# %bb.4:                                # %.noexc.i.i.i
	movq	%rdx, %rcx
.Ltmp169:
	movq	%rsp, %rdi
	movl	$16, %esi
	movq	%rax, %rdx
	callq	*_ZN3std2io5error5Error4_new17h9d3cc36308b63b32E@GOTPCREL(%rip)
.Ltmp170:
# %bb.5:                                # %_ZN4core3ptr18real_drop_in_place17h0b30e8d9d34d5f31E.exit.i.i.i
	movups	(%rsp), %xmm0
	movaps	%xmm0, 32(%rsp)
.LBB73_9:                               # %bb4.i.i
	movb	32(%rsp), %al
	cmpb	$3, %al
	ja	.LBB73_11
# %bb.10:                               # %bb4.i.i
	cmpb	$2, %al
	jne	.LBB73_15
.LBB73_11:                              # %bb2.i.i.i.i.i
	movq	40(%rsp), %r12
	movq	(%r12), %rdi
	movq	8(%r12), %rax
.Ltmp175:
	callq	*(%rax)
.Ltmp176:
# %bb.12:                               # %bb3.i.i.i.i.i.i.i.i
	movq	8(%r12), %rax
	movq	8(%rax), %rsi
	testq	%rsi, %rsi
	je	.LBB73_14
# %bb.13:                               # %bb4.i.i.i.i.i.i.i.i.i
	movq	(%r12), %rdi
	movq	16(%rax), %rdx
	callq	*__rust_dealloc@GOTPCREL(%rip)
.LBB73_14:                              # %_ZN4core3ptr18real_drop_in_place17h27b9bb4166fdb623E.exit.i.i.i.i.i
	movl	$24, %esi
	movl	$8, %edx
	movq	%r12, %rdi
	callq	*__rust_dealloc@GOTPCREL(%rip)
.LBB73_15:                              # %bb7.i.i
	leaq	24(%rsp), %rdi
.Ltmp180:
	callq	*_ZN70_$LT$std..sys..unix..fd..FileDesc$u20$as$u20$core..ops..drop..Drop$GT$4drop17hf2b9d188fe38bb32E@GOTPCREL(%rip)
.Ltmp181:
# %bb.16:                               # %bb6.i
	cmpq	$0, (%r13)
	je	.LBB73_18
# %bb.17:                               # %bb2.i.i
	leaq	16(%r13), %rdi
.Ltmp186:
	callq	*_ZN70_$LT$std..sys..unix..fd..FileDesc$u20$as$u20$core..ops..drop..Drop$GT$4drop17hf2b9d188fe38bb32E@GOTPCREL(%rip)
.Ltmp187:
.LBB73_18:                              # %bb5.i
	addq	$24, %r13
.Ltmp189:
	movq	%r13, %rdi
	callq	*_ZN79_$LT$tokio..io..registration..Registration$u20$as$u20$core..ops..drop..Drop$GT$4drop17he0fe257dfb231b17E@GOTPCREL(%rip)
.Ltmp190:
# %bb.19:                               # %bb4.i.i.i
	movq	(%r13), %rax
	leaq	1(%rax), %rcx
	cmpq	$2, %rcx
	jae	.LBB73_20
.LBB73_22:                              # %_ZN4core3ptr18real_drop_in_place17ha34840c2cd7fe1c3E.exit
	addq	$80, %rsp
	.cfi_def_cfa_offset 48
	popq	%rbx
	.cfi_def_cfa_offset 40
	popq	%r12
	.cfi_def_cfa_offset 32
	popq	%r13
	.cfi_def_cfa_offset 24
	popq	%r14
	.cfi_def_cfa_offset 16
	popq	%r15
	.cfi_def_cfa_offset 8
	retq
.LBB73_20:                              # %bb3.i.i.i.i.i.i
	.cfi_def_cfa_offset 128
	lock		subq	$1, 8(%rax)
	jne	.LBB73_22
# %bb.21:                               # %bb6.i.i.i.i.i.i
	#MEMBARRIER
	movq	(%r13), %rdi
	movl	$144, %esi
	movl	$8, %edx
	callq	*__rust_dealloc@GOTPCREL(%rip)
	jmp	.LBB73_22
.LBB73_25:                              # %cleanup.i.i.i.i.i.i.i.i
.Ltmp177:
	movq	%rax, %r15
                                        # kill: killed $rdx
	movq	(%r12), %rdi
	movq	8(%r12), %rsi
	callq	_ZN5alloc5alloc8box_free17h39766183111e1fbdE
	movq	%r12, %rdi
	callq	_ZN5alloc5alloc8box_free17ha829dafaf86a282fE
	jmp	.LBB73_27
.LBB73_34:                              # %cleanup1.i
.Ltmp188:
	movq	%rax, %r15
	jmp	.LBB73_33
.LBB73_23:                              # %cleanup.i.i.i
.Ltmp162:
	movq	%rax, %r15
                                        # kill: killed $rdx
.Ltmp163:
	movq	%rsp, %rdi
	callq	_ZN4core3ptr18real_drop_in_place17hb67afcbcf1d2d5b8E
.Ltmp164:
	jmp	.LBB73_27
.LBB73_24:                              # %cleanup2.i.i.i
.Ltmp171:
	movq	%rax, %r15
                                        # kill: killed $rdx
.Ltmp172:
	leaq	48(%rsp), %rdi
	callq	_ZN4core3ptr18real_drop_in_place17h0b30e8d9d34d5f31E
.Ltmp173:
	jmp	.LBB73_27
.LBB73_30:                              # %cleanup1.i.i
.Ltmp182:
	movq	%rax, %r15
                                        # kill: killed $rdx
	jmp	.LBB73_28
.LBB73_26:                              # %cleanup.i.i
.Ltmp174:
	movq	%rax, %r15
                                        # kill: killed $rdx
.LBB73_27:                              # %cleanup.body.i.i
.Ltmp178:
	leaq	16(%rsp), %rdi
	callq	_ZN4core3ptr18real_drop_in_place17h1dfbf6d2047bdac8E
.Ltmp179:
.LBB73_28:                              # %bb5.i.i
	cmpl	$1, 56(%rsp)
	je	.LBB73_32
# %bb.29:                               # %bb9.i.i
.Ltmp183:
	leaq	56(%rsp), %rdi
	callq	_ZN4core3ptr18real_drop_in_place17h039a5de4cf8b2434E
.Ltmp184:
.LBB73_32:                              # %cleanup.body.i
	movq	%r13, %rdi
	callq	_ZN4core3ptr18real_drop_in_place17h039a5de4cf8b2434E
.LBB73_33:                              # %bb3.i
	movq	%r14, %rdi
	callq	_ZN4core3ptr18real_drop_in_place17h47f721620558509eE
	movq	%r15, %rdi
	callq	_Unwind_Resume
.LBB73_31:                              # %cleanup.i
.Ltmp185:
	movq	%rax, %r15
	jmp	.LBB73_32
.LBB73_35:                              # %cleanup.i.i9.i
.Ltmp191:
	movq	%rax, %r15
	movq	%r13, %rdi
	callq	_ZN4core3ptr18real_drop_in_place17hf72921a7bb3322d2E
	movq	%r15, %rdi
	callq	_Unwind_Resume
.Lfunc_end73:
	.size	_ZN4core3ptr18real_drop_in_place17ha4eaf2372c827098E, .Lfunc_end73-_ZN4core3ptr18real_drop_in_place17ha4eaf2372c827098E
	.cfi_endproc
	.section	.gcc_except_table,"a",@progbits
	.p2align	2
GCC_except_table73:
.Lexception22:
	.byte	255                     # @LPStart Encoding = omit
	.byte	255                     # @TType Encoding = omit
	.byte	1                       # Call site Encoding = uleb128
	.uleb128 .Lcst_end22-.Lcst_begin22
.Lcst_begin22:
	.uleb128 .Ltmp158-.Lfunc_begin22 # >> Call Site 1 <<
	.uleb128 .Ltmp159-.Ltmp158      #   Call between .Ltmp158 and .Ltmp159
	.uleb128 .Ltmp174-.Lfunc_begin22 #     jumps to .Ltmp174
	.byte	0                       #   On action: cleanup
	.uleb128 .Ltmp160-.Lfunc_begin22 # >> Call Site 2 <<
	.uleb128 .Ltmp161-.Ltmp160      #   Call between .Ltmp160 and .Ltmp161
	.uleb128 .Ltmp162-.Lfunc_begin22 #     jumps to .Ltmp162
	.byte	0                       #   On action: cleanup
	.uleb128 .Ltmp165-.Lfunc_begin22 # >> Call Site 3 <<
	.uleb128 .Ltmp166-.Ltmp165      #   Call between .Ltmp165 and .Ltmp166
	.uleb128 .Ltmp174-.Lfunc_begin22 #     jumps to .Ltmp174
	.byte	0                       #   On action: cleanup
	.uleb128 .Ltmp167-.Lfunc_begin22 # >> Call Site 4 <<
	.uleb128 .Ltmp170-.Ltmp167      #   Call between .Ltmp167 and .Ltmp170
	.uleb128 .Ltmp171-.Lfunc_begin22 #     jumps to .Ltmp171
	.byte	0                       #   On action: cleanup
	.uleb128 .Ltmp175-.Lfunc_begin22 # >> Call Site 5 <<
	.uleb128 .Ltmp176-.Ltmp175      #   Call between .Ltmp175 and .Ltmp176
	.uleb128 .Ltmp177-.Lfunc_begin22 #     jumps to .Ltmp177
	.byte	0                       #   On action: cleanup
	.uleb128 .Ltmp180-.Lfunc_begin22 # >> Call Site 6 <<
	.uleb128 .Ltmp181-.Ltmp180      #   Call between .Ltmp180 and .Ltmp181
	.uleb128 .Ltmp182-.Lfunc_begin22 #     jumps to .Ltmp182
	.byte	0                       #   On action: cleanup
	.uleb128 .Ltmp186-.Lfunc_begin22 # >> Call Site 7 <<
	.uleb128 .Ltmp187-.Ltmp186      #   Call between .Ltmp186 and .Ltmp187
	.uleb128 .Ltmp188-.Lfunc_begin22 #     jumps to .Ltmp188
	.byte	0                       #   On action: cleanup
	.uleb128 .Ltmp189-.Lfunc_begin22 # >> Call Site 8 <<
	.uleb128 .Ltmp190-.Ltmp189      #   Call between .Ltmp189 and .Ltmp190
	.uleb128 .Ltmp191-.Lfunc_begin22 #     jumps to .Ltmp191
	.byte	0                       #   On action: cleanup
	.uleb128 .Ltmp163-.Lfunc_begin22 # >> Call Site 9 <<
	.uleb128 .Ltmp173-.Ltmp163      #   Call between .Ltmp163 and .Ltmp173
	.uleb128 .Ltmp174-.Lfunc_begin22 #     jumps to .Ltmp174
	.byte	0                       #   On action: cleanup
	.uleb128 .Ltmp178-.Lfunc_begin22 # >> Call Site 10 <<
	.uleb128 .Ltmp184-.Ltmp178      #   Call between .Ltmp178 and .Ltmp184
	.uleb128 .Ltmp185-.Lfunc_begin22 #     jumps to .Ltmp185
	.byte	0                       #   On action: cleanup
	.uleb128 .Ltmp184-.Lfunc_begin22 # >> Call Site 11 <<
	.uleb128 .Lfunc_end73-.Ltmp184  #   Call between .Ltmp184 and .Lfunc_end73
	.byte	0                       #     has no landing pad
	.byte	0                       #   On action: cleanup
.Lcst_end22:
	.p2align	2
                                        # -- End function
	.text
	.p2align	4, 0x90         # -- Begin function _ZN4core3ptr18real_drop_in_place17ha528f2a6a17be11cE
	.type	_ZN4core3ptr18real_drop_in_place17ha528f2a6a17be11cE,@function
_ZN4core3ptr18real_drop_in_place17ha528f2a6a17be11cE: # @_ZN4core3ptr18real_drop_in_place17ha528f2a6a17be11cE
.Lfunc_begin23:
	.cfi_startproc
	.cfi_personality 3, rust_eh_personality
	.cfi_lsda 3, .Lexception23
# %bb.0:                                # %start
	pushq	%r15
	.cfi_def_cfa_offset 16
	pushq	%r14
	.cfi_def_cfa_offset 24
	pushq	%rbx
	.cfi_def_cfa_offset 32
	.cfi_offset %rbx, -32
	.cfi_offset %r14, -24
	.cfi_offset %r15, -16
	movq	%rdi, %rbx
	movb	(%rdi), %al
	cmpb	$3, %al
	ja	.LBB74_2
# %bb.1:                                # %start
	cmpb	$2, %al
	je	.LBB74_2
# %bb.6:                                # %bb1
	popq	%rbx
	.cfi_def_cfa_offset 24
	popq	%r14
	.cfi_def_cfa_offset 16
	popq	%r15
	.cfi_def_cfa_offset 8
	retq
.LBB74_2:                               # %bb2.i.i
	.cfi_def_cfa_offset 32
	movq	8(%rbx), %r15
	movq	(%r15), %rdi
	movq	8(%r15), %rax
.Ltmp192:
	callq	*(%rax)
.Ltmp193:
# %bb.3:                                # %bb3.i.i.i.i.i
	movq	8(%r15), %rax
	movq	8(%rax), %rsi
	testq	%rsi, %rsi
	je	.LBB74_5
# %bb.4:                                # %bb4.i.i.i.i.i.i
	movq	(%r15), %rdi
	movq	16(%rax), %rdx
	callq	*__rust_dealloc@GOTPCREL(%rip)
.LBB74_5:                               # %_ZN4core3ptr18real_drop_in_place17h27b9bb4166fdb623E.exit.i.i
	movq	8(%rbx), %rdi
	movl	$24, %esi
	movl	$8, %edx
	popq	%rbx
	.cfi_def_cfa_offset 24
	popq	%r14
	.cfi_def_cfa_offset 16
	popq	%r15
	.cfi_def_cfa_offset 8
	jmpq	*__rust_dealloc@GOTPCREL(%rip) # TAILCALL
.LBB74_7:                               # %cleanup.i.i.i.i.i
	.cfi_def_cfa_offset 32
.Ltmp194:
	movq	%rax, %r14
	movq	(%r15), %rdi
	movq	8(%r15), %rsi
	callq	_ZN5alloc5alloc8box_free17h39766183111e1fbdE
	movq	8(%rbx), %rdi
	callq	_ZN5alloc5alloc8box_free17ha829dafaf86a282fE
	movq	%r14, %rdi
	callq	_Unwind_Resume
.Lfunc_end74:
	.size	_ZN4core3ptr18real_drop_in_place17ha528f2a6a17be11cE, .Lfunc_end74-_ZN4core3ptr18real_drop_in_place17ha528f2a6a17be11cE
	.cfi_endproc
	.section	.gcc_except_table,"a",@progbits
	.p2align	2
GCC_except_table74:
.Lexception23:
	.byte	255                     # @LPStart Encoding = omit
	.byte	255                     # @TType Encoding = omit
	.byte	1                       # Call site Encoding = uleb128
	.uleb128 .Lcst_end23-.Lcst_begin23
.Lcst_begin23:
	.uleb128 .Ltmp192-.Lfunc_begin23 # >> Call Site 1 <<
	.uleb128 .Ltmp193-.Ltmp192      #   Call between .Ltmp192 and .Ltmp193
	.uleb128 .Ltmp194-.Lfunc_begin23 #     jumps to .Ltmp194
	.byte	0                       #   On action: cleanup
	.uleb128 .Ltmp193-.Lfunc_begin23 # >> Call Site 2 <<
	.uleb128 .Lfunc_end74-.Ltmp193  #   Call between .Ltmp193 and .Lfunc_end74
	.byte	0                       #     has no landing pad
	.byte	0                       #   On action: cleanup
.Lcst_end23:
	.p2align	2
                                        # -- End function
	.text
	.p2align	4, 0x90         # -- Begin function _ZN4core3ptr18real_drop_in_place17ha6fa1980cd7ce6c6E
	.type	_ZN4core3ptr18real_drop_in_place17ha6fa1980cd7ce6c6E,@function
_ZN4core3ptr18real_drop_in_place17ha6fa1980cd7ce6c6E: # @_ZN4core3ptr18real_drop_in_place17ha6fa1980cd7ce6c6E
	.cfi_startproc
# %bb.0:                                # %start
	movq	(%rdi), %rdi
	movl	$48, %esi
	movl	$8, %edx
	jmpq	*__rust_dealloc@GOTPCREL(%rip) # TAILCALL
.Lfunc_end75:
	.size	_ZN4core3ptr18real_drop_in_place17ha6fa1980cd7ce6c6E, .Lfunc_end75-_ZN4core3ptr18real_drop_in_place17ha6fa1980cd7ce6c6E
	.cfi_endproc
                                        # -- End function
	.p2align	4, 0x90         # -- Begin function _ZN4core3ptr18real_drop_in_place17habc6c8abb5f5d03aE
	.type	_ZN4core3ptr18real_drop_in_place17habc6c8abb5f5d03aE,@function
_ZN4core3ptr18real_drop_in_place17habc6c8abb5f5d03aE: # @_ZN4core3ptr18real_drop_in_place17habc6c8abb5f5d03aE
	.cfi_startproc
# %bb.0:                                # %start
	movq	(%rdi), %rax
	lock		subq	$1, (%rax)
	jne	.LBB76_1
# %bb.2:                                # %bb3.i
	#MEMBARRIER
	jmp	_ZN5alloc4sync12Arc$LT$T$GT$9drop_slow17h2b4004cb1a3842a7E # TAILCALL
.LBB76_1:                               # %"_ZN67_$LT$alloc..sync..Arc$LT$T$GT$$u20$as$u20$core..ops..drop..Drop$GT$4drop17h448c850d582154a2E.exit"
	retq
.Lfunc_end76:
	.size	_ZN4core3ptr18real_drop_in_place17habc6c8abb5f5d03aE, .Lfunc_end76-_ZN4core3ptr18real_drop_in_place17habc6c8abb5f5d03aE
	.cfi_endproc
                                        # -- End function
	.p2align	4, 0x90         # -- Begin function _ZN4core3ptr18real_drop_in_place17hae2d1d855d95da95E
	.type	_ZN4core3ptr18real_drop_in_place17hae2d1d855d95da95E,@function
_ZN4core3ptr18real_drop_in_place17hae2d1d855d95da95E: # @_ZN4core3ptr18real_drop_in_place17hae2d1d855d95da95E
	.cfi_startproc
# %bb.0:                                # %start
	pushq	%rax
	.cfi_def_cfa_offset 16
	movq	(%rdi), %rax
	movq	$0, (%rdi)
	testq	%rax, %rax
	je	.LBB77_3
# %bb.1:                                # %bb2.i
	movq	%rax, (%rsp)
	movq	%rsp, %rdi
	callq	*_ZN5tokio4task3raw7RawTask6header17h887b575297842f2aE@GOTPCREL(%rip)
	movq	%rax, %rdi
	callq	*_ZN5tokio4task5state5State21drop_join_handle_fast17hda3cbd0e3b0dff84E@GOTPCREL(%rip)
	testb	%al, %al
	jne	.LBB77_3
# %bb.2:                                # %bb5.i
	movq	(%rsp), %rdi
	callq	*_ZN5tokio4task3raw7RawTask21drop_join_handle_slow17h0a08c8ada2900777E@GOTPCREL(%rip)
.LBB77_3:                               # %"_ZN80_$LT$tokio..task..join..JoinHandle$LT$T$GT$$u20$as$u20$core..ops..drop..Drop$GT$4drop17h9841e7d565479b6eE.exit"
	popq	%rax
	.cfi_def_cfa_offset 8
	retq
.Lfunc_end77:
	.size	_ZN4core3ptr18real_drop_in_place17hae2d1d855d95da95E, .Lfunc_end77-_ZN4core3ptr18real_drop_in_place17hae2d1d855d95da95E
	.cfi_endproc
                                        # -- End function
	.p2align	4, 0x90         # -- Begin function _ZN4core3ptr18real_drop_in_place17hb03804ef44432157E
	.type	_ZN4core3ptr18real_drop_in_place17hb03804ef44432157E,@function
_ZN4core3ptr18real_drop_in_place17hb03804ef44432157E: # @_ZN4core3ptr18real_drop_in_place17hb03804ef44432157E
.Lfunc_begin24:
	.cfi_startproc
	.cfi_personality 3, rust_eh_personality
	.cfi_lsda 3, .Lexception24
# %bb.0:                                # %start
	pushq	%r14
	.cfi_def_cfa_offset 16
	pushq	%rbx
	.cfi_def_cfa_offset 24
	pushq	%rax
	.cfi_def_cfa_offset 32
	.cfi_offset %rbx, -24
	.cfi_offset %r14, -16
	movq	%rdi, %rbx
	movq	32(%rdi), %rsi
	testq	%rsi, %rsi
	je	.LBB78_2
# %bb.1:                                # %bb4.i.i.i.i.i
	movq	24(%rbx), %rdi
	movl	$1, %edx
	callq	*__rust_dealloc@GOTPCREL(%rip)
.LBB78_2:                               # %bb6
	movq	64(%rbx), %rax
	testq	%rax, %rax
	je	.LBB78_5
# %bb.3:                                # %bb2.i10
	lock		subq	$1, (%rax)
	jne	.LBB78_5
# %bb.4:                                # %bb3.i.i.i11
	leaq	64(%rbx), %rdi
	#MEMBARRIER
.Ltmp195:
	callq	_ZN5alloc4sync12Arc$LT$T$GT$9drop_slow17hce72188c7ef7cdffE
.Ltmp196:
.LBB78_5:                               # %bb5
	movq	80(%rbx), %rax
	testq	%rax, %rax
	je	.LBB78_9
# %bb.6:                                # %bb2.i
	lock		subq	$1, (%rax)
	jne	.LBB78_9
# %bb.7:                                # %bb3.i.i.i
	addq	$80, %rbx
	#MEMBARRIER
	movq	%rbx, %rdi
	addq	$8, %rsp
	.cfi_def_cfa_offset 24
	popq	%rbx
	.cfi_def_cfa_offset 16
	popq	%r14
	.cfi_def_cfa_offset 8
	jmp	_ZN5alloc4sync12Arc$LT$T$GT$9drop_slow17hce72188c7ef7cdffE # TAILCALL
.LBB78_9:                               # %_ZN4core3ptr18real_drop_in_place17h6bec50ca570047d9E.exit
	.cfi_def_cfa_offset 32
	addq	$8, %rsp
	.cfi_def_cfa_offset 24
	popq	%rbx
	.cfi_def_cfa_offset 16
	popq	%r14
	.cfi_def_cfa_offset 8
	retq
.LBB78_8:                               # %bb3
	.cfi_def_cfa_offset 32
.Ltmp197:
	movq	%rax, %r14
	addq	$80, %rbx
	movq	%rbx, %rdi
	callq	_ZN4core3ptr18real_drop_in_place17h6bec50ca570047d9E
	movq	%r14, %rdi
	callq	_Unwind_Resume
.Lfunc_end78:
	.size	_ZN4core3ptr18real_drop_in_place17hb03804ef44432157E, .Lfunc_end78-_ZN4core3ptr18real_drop_in_place17hb03804ef44432157E
	.cfi_endproc
	.section	.gcc_except_table,"a",@progbits
	.p2align	2
GCC_except_table78:
.Lexception24:
	.byte	255                     # @LPStart Encoding = omit
	.byte	255                     # @TType Encoding = omit
	.byte	1                       # Call site Encoding = uleb128
	.uleb128 .Lcst_end24-.Lcst_begin24
.Lcst_begin24:
	.uleb128 .Ltmp195-.Lfunc_begin24 # >> Call Site 1 <<
	.uleb128 .Ltmp196-.Ltmp195      #   Call between .Ltmp195 and .Ltmp196
	.uleb128 .Ltmp197-.Lfunc_begin24 #     jumps to .Ltmp197
	.byte	0                       #   On action: cleanup
	.uleb128 .Ltmp196-.Lfunc_begin24 # >> Call Site 2 <<
	.uleb128 .Lfunc_end78-.Ltmp196  #   Call between .Ltmp196 and .Lfunc_end78
	.byte	0                       #     has no landing pad
	.byte	0                       #   On action: cleanup
.Lcst_end24:
	.p2align	2
                                        # -- End function
	.text
	.p2align	4, 0x90         # -- Begin function _ZN4core3ptr18real_drop_in_place17hb226c2f8ad269285E
	.type	_ZN4core3ptr18real_drop_in_place17hb226c2f8ad269285E,@function
_ZN4core3ptr18real_drop_in_place17hb226c2f8ad269285E: # @_ZN4core3ptr18real_drop_in_place17hb226c2f8ad269285E
	.cfi_startproc
# %bb.0:                                # %start
	movq	(%rdi), %rax
	movq	8(%rdi), %rcx
	movq	%rax, %rdi
	jmpq	*24(%rcx)               # TAILCALL
.Lfunc_end79:
	.size	_ZN4core3ptr18real_drop_in_place17hb226c2f8ad269285E, .Lfunc_end79-_ZN4core3ptr18real_drop_in_place17hb226c2f8ad269285E
	.cfi_endproc
                                        # -- End function
	.p2align	4, 0x90         # -- Begin function _ZN4core3ptr18real_drop_in_place17hb375d059e9ff58beE
	.type	_ZN4core3ptr18real_drop_in_place17hb375d059e9ff58beE,@function
_ZN4core3ptr18real_drop_in_place17hb375d059e9ff58beE: # @_ZN4core3ptr18real_drop_in_place17hb375d059e9ff58beE
.Lfunc_begin25:
	.cfi_startproc
	.cfi_personality 3, rust_eh_personality
	.cfi_lsda 3, .Lexception25
# %bb.0:                                # %start
	pushq	%r15
	.cfi_def_cfa_offset 16
	pushq	%r14
	.cfi_def_cfa_offset 24
	pushq	%rbx
	.cfi_def_cfa_offset 32
	.cfi_offset %rbx, -32
	.cfi_offset %r14, -24
	.cfi_offset %r15, -16
	movq	%rdi, %rbx
	movb	(%rdi), %al
	cmpb	$3, %al
	ja	.LBB80_2
# %bb.1:                                # %start
	cmpb	$2, %al
	je	.LBB80_2
# %bb.6:                                # %bb1
	popq	%rbx
	.cfi_def_cfa_offset 24
	popq	%r14
	.cfi_def_cfa_offset 16
	popq	%r15
	.cfi_def_cfa_offset 8
	retq
.LBB80_2:                               # %bb2.i.i
	.cfi_def_cfa_offset 32
	movq	8(%rbx), %r15
	movq	(%r15), %rdi
	movq	8(%r15), %rax
.Ltmp198:
	callq	*(%rax)
.Ltmp199:
# %bb.3:                                # %bb3.i.i.i.i.i
	movq	8(%r15), %rax
	movq	8(%rax), %rsi
	testq	%rsi, %rsi
	je	.LBB80_5
# %bb.4:                                # %bb4.i.i.i.i.i.i
	movq	(%r15), %rdi
	movq	16(%rax), %rdx
	callq	*__rust_dealloc@GOTPCREL(%rip)
.LBB80_5:                               # %_ZN4core3ptr18real_drop_in_place17h27b9bb4166fdb623E.exit.i.i
	movq	8(%rbx), %rdi
	movl	$24, %esi
	movl	$8, %edx
	popq	%rbx
	.cfi_def_cfa_offset 24
	popq	%r14
	.cfi_def_cfa_offset 16
	popq	%r15
	.cfi_def_cfa_offset 8
	jmpq	*__rust_dealloc@GOTPCREL(%rip) # TAILCALL
.LBB80_7:                               # %cleanup.i.i.i.i.i
	.cfi_def_cfa_offset 32
.Ltmp200:
	movq	%rax, %r14
	movq	(%r15), %rdi
	movq	8(%r15), %rsi
	callq	_ZN5alloc5alloc8box_free17h39766183111e1fbdE
	movq	8(%rbx), %rdi
	callq	_ZN5alloc5alloc8box_free17ha829dafaf86a282fE
	movq	%r14, %rdi
	callq	_Unwind_Resume
.Lfunc_end80:
	.size	_ZN4core3ptr18real_drop_in_place17hb375d059e9ff58beE, .Lfunc_end80-_ZN4core3ptr18real_drop_in_place17hb375d059e9ff58beE
	.cfi_endproc
	.section	.gcc_except_table,"a",@progbits
	.p2align	2
GCC_except_table80:
.Lexception25:
	.byte	255                     # @LPStart Encoding = omit
	.byte	255                     # @TType Encoding = omit
	.byte	1                       # Call site Encoding = uleb128
	.uleb128 .Lcst_end25-.Lcst_begin25
.Lcst_begin25:
	.uleb128 .Ltmp198-.Lfunc_begin25 # >> Call Site 1 <<
	.uleb128 .Ltmp199-.Ltmp198      #   Call between .Ltmp198 and .Ltmp199
	.uleb128 .Ltmp200-.Lfunc_begin25 #     jumps to .Ltmp200
	.byte	0                       #   On action: cleanup
	.uleb128 .Ltmp199-.Lfunc_begin25 # >> Call Site 2 <<
	.uleb128 .Lfunc_end80-.Ltmp199  #   Call between .Ltmp199 and .Lfunc_end80
	.byte	0                       #     has no landing pad
	.byte	0                       #   On action: cleanup
.Lcst_end25:
	.p2align	2
                                        # -- End function
	.text
	.p2align	4, 0x90         # -- Begin function _ZN4core3ptr18real_drop_in_place17hb430a81eb84989bfE
	.type	_ZN4core3ptr18real_drop_in_place17hb430a81eb84989bfE,@function
_ZN4core3ptr18real_drop_in_place17hb430a81eb84989bfE: # @_ZN4core3ptr18real_drop_in_place17hb430a81eb84989bfE
	.cfi_startproc
# %bb.0:                                # %start
	jmpq	*_ZN70_$LT$tokio..runtime..enter..Enter$u20$as$u20$core..ops..drop..Drop$GT$4drop17h8c0022eb2aaec068E@GOTPCREL(%rip) # TAILCALL
.Lfunc_end81:
	.size	_ZN4core3ptr18real_drop_in_place17hb430a81eb84989bfE, .Lfunc_end81-_ZN4core3ptr18real_drop_in_place17hb430a81eb84989bfE
	.cfi_endproc
                                        # -- End function
	.p2align	4, 0x90         # -- Begin function _ZN4core3ptr18real_drop_in_place17hb67afcbcf1d2d5b8E
	.type	_ZN4core3ptr18real_drop_in_place17hb67afcbcf1d2d5b8E,@function
_ZN4core3ptr18real_drop_in_place17hb67afcbcf1d2d5b8E: # @_ZN4core3ptr18real_drop_in_place17hb67afcbcf1d2d5b8E
	.cfi_startproc
# %bb.0:                                # %start
	movq	(%rdi), %rax
	lock		subq	$1, (%rax)
	jne	.LBB82_1
# %bb.2:                                # %bb3.i
	#MEMBARRIER
	jmp	_ZN5alloc4sync12Arc$LT$T$GT$9drop_slow17h5d84505ff6cb1dc8E # TAILCALL
.LBB82_1:                               # %"_ZN67_$LT$alloc..sync..Arc$LT$T$GT$$u20$as$u20$core..ops..drop..Drop$GT$4drop17hdc502d8bdc90bc79E.exit"
	retq
.Lfunc_end82:
	.size	_ZN4core3ptr18real_drop_in_place17hb67afcbcf1d2d5b8E, .Lfunc_end82-_ZN4core3ptr18real_drop_in_place17hb67afcbcf1d2d5b8E
	.cfi_endproc
                                        # -- End function
	.p2align	4, 0x90         # -- Begin function _ZN4core3ptr18real_drop_in_place17hb84cac86afc837feE
	.type	_ZN4core3ptr18real_drop_in_place17hb84cac86afc837feE,@function
_ZN4core3ptr18real_drop_in_place17hb84cac86afc837feE: # @_ZN4core3ptr18real_drop_in_place17hb84cac86afc837feE
	.cfi_startproc
# %bb.0:                                # %start
	pushq	%rbx
	.cfi_def_cfa_offset 16
	.cfi_offset %rbx, -16
	movq	%rdi, %rbx
	movq	(%rdi), %rdi
	callq	*pthread_mutex_destroy@GOTPCREL(%rip)
	movq	(%rbx), %rdi
	movl	$40, %esi
	movl	$8, %edx
	popq	%rbx
	.cfi_def_cfa_offset 8
	jmpq	*__rust_dealloc@GOTPCREL(%rip) # TAILCALL
.Lfunc_end83:
	.size	_ZN4core3ptr18real_drop_in_place17hb84cac86afc837feE, .Lfunc_end83-_ZN4core3ptr18real_drop_in_place17hb84cac86afc837feE
	.cfi_endproc
                                        # -- End function
	.p2align	4, 0x90         # -- Begin function _ZN4core3ptr18real_drop_in_place17hb9548981e85bfaaeE
	.type	_ZN4core3ptr18real_drop_in_place17hb9548981e85bfaaeE,@function
_ZN4core3ptr18real_drop_in_place17hb9548981e85bfaaeE: # @_ZN4core3ptr18real_drop_in_place17hb9548981e85bfaaeE
.Lfunc_begin26:
	.cfi_startproc
	.cfi_personality 3, rust_eh_personality
	.cfi_lsda 3, .Lexception26
# %bb.0:                                # %start
	pushq	%r14
	.cfi_def_cfa_offset 16
	pushq	%rbx
	.cfi_def_cfa_offset 24
	pushq	%rax
	.cfi_def_cfa_offset 32
	.cfi_offset %rbx, -24
	.cfi_offset %r14, -16
	movq	%rdi, %rbx
	movq	(%rdi), %rdi
	movq	8(%rbx), %rax
.Ltmp201:
	callq	*(%rax)
.Ltmp202:
# %bb.1:                                # %bb3
	movq	8(%rbx), %rax
	movq	8(%rax), %rsi
	testq	%rsi, %rsi
	je	.LBB84_2
# %bb.4:                                # %bb4.i
	movq	(%rbx), %rdi
	movq	16(%rax), %rdx
	addq	$8, %rsp
	.cfi_def_cfa_offset 24
	popq	%rbx
	.cfi_def_cfa_offset 16
	popq	%r14
	.cfi_def_cfa_offset 8
	jmpq	*__rust_dealloc@GOTPCREL(%rip) # TAILCALL
.LBB84_2:                               # %_ZN5alloc5alloc8box_free17h39766183111e1fbdE.exit
	.cfi_def_cfa_offset 32
	addq	$8, %rsp
	.cfi_def_cfa_offset 24
	popq	%rbx
	.cfi_def_cfa_offset 16
	popq	%r14
	.cfi_def_cfa_offset 8
	retq
.LBB84_3:                               # %cleanup
	.cfi_def_cfa_offset 32
.Ltmp203:
	movq	%rax, %r14
	movq	(%rbx), %rdi
	movq	8(%rbx), %rsi
	callq	_ZN5alloc5alloc8box_free17h39766183111e1fbdE
	movq	%r14, %rdi
	callq	_Unwind_Resume
.Lfunc_end84:
	.size	_ZN4core3ptr18real_drop_in_place17hb9548981e85bfaaeE, .Lfunc_end84-_ZN4core3ptr18real_drop_in_place17hb9548981e85bfaaeE
	.cfi_endproc
	.section	.gcc_except_table,"a",@progbits
	.p2align	2
GCC_except_table84:
.Lexception26:
	.byte	255                     # @LPStart Encoding = omit
	.byte	255                     # @TType Encoding = omit
	.byte	1                       # Call site Encoding = uleb128
	.uleb128 .Lcst_end26-.Lcst_begin26
.Lcst_begin26:
	.uleb128 .Ltmp201-.Lfunc_begin26 # >> Call Site 1 <<
	.uleb128 .Ltmp202-.Ltmp201      #   Call between .Ltmp201 and .Ltmp202
	.uleb128 .Ltmp203-.Lfunc_begin26 #     jumps to .Ltmp203
	.byte	0                       #   On action: cleanup
	.uleb128 .Ltmp202-.Lfunc_begin26 # >> Call Site 2 <<
	.uleb128 .Lfunc_end84-.Ltmp202  #   Call between .Ltmp202 and .Lfunc_end84
	.byte	0                       #     has no landing pad
	.byte	0                       #   On action: cleanup
.Lcst_end26:
	.p2align	2
                                        # -- End function
	.text
	.p2align	4, 0x90         # -- Begin function _ZN4core3ptr18real_drop_in_place17hbd2dea592d9bfd01E
	.type	_ZN4core3ptr18real_drop_in_place17hbd2dea592d9bfd01E,@function
_ZN4core3ptr18real_drop_in_place17hbd2dea592d9bfd01E: # @_ZN4core3ptr18real_drop_in_place17hbd2dea592d9bfd01E
	.cfi_startproc
# %bb.0:                                # %start
	pushq	%rax
	.cfi_def_cfa_offset 16
	movl	(%rdi), %eax
	cmpl	$3, %eax
	je	.LBB85_3
# %bb.1:                                # %start
	cmpl	$4, %eax
	jne	.LBB85_8
# %bb.2:                                # %bb11.i
	addq	$8, %rdi
	callq	_ZN4core3ptr18real_drop_in_place17ha4eaf2372c827098E
	popq	%rax
	.cfi_def_cfa_offset 8
	retq
.LBB85_3:                               # %bb18.i
	.cfi_def_cfa_offset 16
	cmpl	$3, 80(%rdi)
	jne	.LBB85_8
# %bb.4:                                # %bb12.i.i.i
	cmpl	$0, 40(%rdi)
	je	.LBB85_8
# %bb.5:                                # %bb2.i.i.i.i
	movq	48(%rdi), %rax
	movq	$0, 48(%rdi)
	testq	%rax, %rax
	je	.LBB85_8
# %bb.6:                                # %bb2.i.i.i.i.i.i
	movq	%rax, (%rsp)
	movq	%rsp, %rdi
	callq	*_ZN5tokio4task3raw7RawTask6header17h887b575297842f2aE@GOTPCREL(%rip)
	movq	%rax, %rdi
	callq	*_ZN5tokio4task5state5State21drop_join_handle_fast17hda3cbd0e3b0dff84E@GOTPCREL(%rip)
	testb	%al, %al
	jne	.LBB85_8
# %bb.7:                                # %bb5.i.i.i.i.i.i
	movq	(%rsp), %rdi
	callq	*_ZN5tokio4task3raw7RawTask21drop_join_handle_slow17h0a08c8ada2900777E@GOTPCREL(%rip)
.LBB85_8:                               # %_ZN4core3ptr18real_drop_in_place17h061fc84a36f8b5adE.exit
	popq	%rax
	.cfi_def_cfa_offset 8
	retq
.Lfunc_end85:
	.size	_ZN4core3ptr18real_drop_in_place17hbd2dea592d9bfd01E, .Lfunc_end85-_ZN4core3ptr18real_drop_in_place17hbd2dea592d9bfd01E
	.cfi_endproc
                                        # -- End function
	.p2align	4, 0x90         # -- Begin function _ZN4core3ptr18real_drop_in_place17hbe25490c23878e8eE
	.type	_ZN4core3ptr18real_drop_in_place17hbe25490c23878e8eE,@function
_ZN4core3ptr18real_drop_in_place17hbe25490c23878e8eE: # @_ZN4core3ptr18real_drop_in_place17hbe25490c23878e8eE
.Lfunc_begin27:
	.cfi_startproc
	.cfi_personality 3, rust_eh_personality
	.cfi_lsda 3, .Lexception27
# %bb.0:                                # %start
	pushq	%r14
	.cfi_def_cfa_offset 16
	pushq	%rbx
	.cfi_def_cfa_offset 24
	subq	$184, %rsp
	.cfi_def_cfa_offset 208
	.cfi_offset %rbx, -24
	.cfi_offset %r14, -16
	cmpb	$0, 8(%rdi)
	jne	.LBB86_3
# %bb.1:                                # %bb1.i
	movq	(%rdi), %rbx
.Ltmp204:
	movq	%rbx, %rdi
	callq	_ZN4core3ptr18real_drop_in_place17hca145ce36531b1ceE
.Ltmp205:
# %bb.2:                                # %"_ZN5tokio4task4core13Core$LT$T$GT$22transition_to_consumed17h35d3eb56e13b55baE.exit.i"
	movq	$2, (%rbx)
	addq	$8, %rbx
	movq	%rsp, %rsi
	movl	$184, %edx
	movq	%rbx, %rdi
	callq	*memcpy@GOTPCREL(%rip)
.LBB86_3:                               # %"_ZN164_$LT$tokio..task..harness..Harness$LT$T$C$S$GT$..poll..$u7b$$u7b$closure$u7d$$u7d$..$u7b$$u7b$closure$u7d$$u7d$..Guard$LT$T$GT$$u20$as$u20$core..ops..drop..Drop$GT$4drop17h51dc05b8c0e6ee9dE.exit"
	addq	$184, %rsp
	.cfi_def_cfa_offset 24
	popq	%rbx
	.cfi_def_cfa_offset 16
	popq	%r14
	.cfi_def_cfa_offset 8
	retq
.LBB86_4:                               # %cleanup.i.i
	.cfi_def_cfa_offset 208
.Ltmp206:
	movq	%rax, %r14
	movq	$2, (%rbx)
	addq	$8, %rbx
	movq	%rsp, %rsi
	movl	$184, %edx
	movq	%rbx, %rdi
	callq	*memcpy@GOTPCREL(%rip)
	movq	%r14, %rdi
	callq	_Unwind_Resume
.Lfunc_end86:
	.size	_ZN4core3ptr18real_drop_in_place17hbe25490c23878e8eE, .Lfunc_end86-_ZN4core3ptr18real_drop_in_place17hbe25490c23878e8eE
	.cfi_endproc
	.section	.gcc_except_table,"a",@progbits
	.p2align	2
GCC_except_table86:
.Lexception27:
	.byte	255                     # @LPStart Encoding = omit
	.byte	255                     # @TType Encoding = omit
	.byte	1                       # Call site Encoding = uleb128
	.uleb128 .Lcst_end27-.Lcst_begin27
.Lcst_begin27:
	.uleb128 .Ltmp204-.Lfunc_begin27 # >> Call Site 1 <<
	.uleb128 .Ltmp205-.Ltmp204      #   Call between .Ltmp204 and .Ltmp205
	.uleb128 .Ltmp206-.Lfunc_begin27 #     jumps to .Ltmp206
	.byte	0                       #   On action: cleanup
	.uleb128 .Ltmp205-.Lfunc_begin27 # >> Call Site 2 <<
	.uleb128 .Lfunc_end86-.Ltmp205  #   Call between .Ltmp205 and .Lfunc_end86
	.byte	0                       #     has no landing pad
	.byte	0                       #   On action: cleanup
.Lcst_end27:
	.p2align	2
                                        # -- End function
	.text
	.p2align	4, 0x90         # -- Begin function _ZN4core3ptr18real_drop_in_place17hc1784ee61e14ff36E
	.type	_ZN4core3ptr18real_drop_in_place17hc1784ee61e14ff36E,@function
_ZN4core3ptr18real_drop_in_place17hc1784ee61e14ff36E: # @_ZN4core3ptr18real_drop_in_place17hc1784ee61e14ff36E
	.cfi_startproc
# %bb.0:                                # %start
	jmp	_ZN4core3ptr18real_drop_in_place17he00dcfa818232a3eE # TAILCALL
.Lfunc_end87:
	.size	_ZN4core3ptr18real_drop_in_place17hc1784ee61e14ff36E, .Lfunc_end87-_ZN4core3ptr18real_drop_in_place17hc1784ee61e14ff36E
	.cfi_endproc
                                        # -- End function
	.p2align	4, 0x90         # -- Begin function _ZN4core3ptr18real_drop_in_place17hc186ceffa195d583E
	.type	_ZN4core3ptr18real_drop_in_place17hc186ceffa195d583E,@function
_ZN4core3ptr18real_drop_in_place17hc186ceffa195d583E: # @_ZN4core3ptr18real_drop_in_place17hc186ceffa195d583E
	.cfi_startproc
# %bb.0:                                # %start
	pushq	%r15
	.cfi_def_cfa_offset 16
	pushq	%r14
	.cfi_def_cfa_offset 24
	pushq	%r13
	.cfi_def_cfa_offset 32
	pushq	%r12
	.cfi_def_cfa_offset 40
	pushq	%rbx
	.cfi_def_cfa_offset 48
	.cfi_offset %rbx, -48
	.cfi_offset %r12, -40
	.cfi_offset %r13, -32
	.cfi_offset %r14, -24
	.cfi_offset %r15, -16
	movq	8(%rdi), %rax
	testq	%rax, %rax
	je	.LBB88_6
# %bb.1:                                # %bb10.preheader.i
	movq	%rdi, %r14
	movq	(%rdi), %r12
	shlq	$3, %rax
	leaq	(%rax,%rax,2), %r15
	xorl	%ebx, %ebx
	movq	__rust_dealloc@GOTPCREL(%rip), %r13
	jmp	.LBB88_2
	.p2align	4, 0x90
.LBB88_4:                               # %_ZN4core3ptr18real_drop_in_place17h86790422b7020667E.exit.i
                                        #   in Loop: Header=BB88_2 Depth=1
	addq	$24, %rbx
	cmpq	%rbx, %r15
	je	.LBB88_5
.LBB88_2:                               # %bb10.i
                                        # =>This Inner Loop Header: Depth=1
	movq	8(%r12,%rbx), %rsi
	shlq	$3, %rsi
	testq	%rsi, %rsi
	je	.LBB88_4
# %bb.3:                                # %bb4.i.i.i.i
                                        #   in Loop: Header=BB88_2 Depth=1
	movq	(%r12,%rbx), %rdi
	movl	$8, %edx
	callq	*%r13
	jmp	.LBB88_4
.LBB88_5:                               # %bb3
	movq	8(%r14), %rax
	shlq	$3, %rax
	leaq	(%rax,%rax,2), %rsi
	testq	%rsi, %rsi
	je	.LBB88_6
# %bb.7:                                # %bb4.i
	movq	(%r14), %rdi
	movl	$8, %edx
	popq	%rbx
	.cfi_def_cfa_offset 40
	popq	%r12
	.cfi_def_cfa_offset 32
	popq	%r13
	.cfi_def_cfa_offset 24
	popq	%r14
	.cfi_def_cfa_offset 16
	popq	%r15
	.cfi_def_cfa_offset 8
	jmpq	*__rust_dealloc@GOTPCREL(%rip) # TAILCALL
.LBB88_6:                               # %_ZN5alloc5alloc8box_free17hea529c1206ebdd10E.exit
	.cfi_def_cfa_offset 48
	popq	%rbx
	.cfi_def_cfa_offset 40
	popq	%r12
	.cfi_def_cfa_offset 32
	popq	%r13
	.cfi_def_cfa_offset 24
	popq	%r14
	.cfi_def_cfa_offset 16
	popq	%r15
	.cfi_def_cfa_offset 8
	retq
.Lfunc_end88:
	.size	_ZN4core3ptr18real_drop_in_place17hc186ceffa195d583E, .Lfunc_end88-_ZN4core3ptr18real_drop_in_place17hc186ceffa195d583E
	.cfi_endproc
                                        # -- End function
	.p2align	4, 0x90         # -- Begin function _ZN4core3ptr18real_drop_in_place17hc545d43790ffecbeE
	.type	_ZN4core3ptr18real_drop_in_place17hc545d43790ffecbeE,@function
_ZN4core3ptr18real_drop_in_place17hc545d43790ffecbeE: # @_ZN4core3ptr18real_drop_in_place17hc545d43790ffecbeE
.Lfunc_begin28:
	.cfi_startproc
	.cfi_personality 3, rust_eh_personality
	.cfi_lsda 3, .Lexception28
# %bb.0:                                # %start
	pushq	%r14
	.cfi_def_cfa_offset 16
	pushq	%rbx
	.cfi_def_cfa_offset 24
	pushq	%rax
	.cfi_def_cfa_offset 32
	.cfi_offset %rbx, -24
	.cfi_offset %r14, -16
	movq	%rdi, %rbx
.Ltmp207:
	callq	*_ZN67_$LT$mio..poll..ReadinessQueue$u20$as$u20$core..ops..drop..Drop$GT$4drop17hd5e3d1166226f4d7E@GOTPCREL(%rip)
.Ltmp208:
# %bb.1:                                # %bb4
	movq	(%rbx), %rax
	lock		subq	$1, (%rax)
	jne	.LBB89_2
# %bb.4:                                # %bb3.i.i
	#MEMBARRIER
	movq	%rbx, %rdi
	addq	$8, %rsp
	.cfi_def_cfa_offset 24
	popq	%rbx
	.cfi_def_cfa_offset 16
	popq	%r14
	.cfi_def_cfa_offset 8
	jmp	_ZN5alloc4sync12Arc$LT$T$GT$9drop_slow17h2b4004cb1a3842a7E # TAILCALL
.LBB89_2:                               # %_ZN4core3ptr18real_drop_in_place17habc6c8abb5f5d03aE.exit
	.cfi_def_cfa_offset 32
	addq	$8, %rsp
	.cfi_def_cfa_offset 24
	popq	%rbx
	.cfi_def_cfa_offset 16
	popq	%r14
	.cfi_def_cfa_offset 8
	retq
.LBB89_3:                               # %cleanup
	.cfi_def_cfa_offset 32
.Ltmp209:
	movq	%rax, %r14
	movq	%rbx, %rdi
	callq	_ZN4core3ptr18real_drop_in_place17habc6c8abb5f5d03aE
	movq	%r14, %rdi
	callq	_Unwind_Resume
.Lfunc_end89:
	.size	_ZN4core3ptr18real_drop_in_place17hc545d43790ffecbeE, .Lfunc_end89-_ZN4core3ptr18real_drop_in_place17hc545d43790ffecbeE
	.cfi_endproc
	.section	.gcc_except_table,"a",@progbits
	.p2align	2
GCC_except_table89:
.Lexception28:
	.byte	255                     # @LPStart Encoding = omit
	.byte	255                     # @TType Encoding = omit
	.byte	1                       # Call site Encoding = uleb128
	.uleb128 .Lcst_end28-.Lcst_begin28
.Lcst_begin28:
	.uleb128 .Ltmp207-.Lfunc_begin28 # >> Call Site 1 <<
	.uleb128 .Ltmp208-.Ltmp207      #   Call between .Ltmp207 and .Ltmp208
	.uleb128 .Ltmp209-.Lfunc_begin28 #     jumps to .Ltmp209
	.byte	0                       #   On action: cleanup
	.uleb128 .Ltmp208-.Lfunc_begin28 # >> Call Site 2 <<
	.uleb128 .Lfunc_end89-.Ltmp208  #   Call between .Ltmp208 and .Lfunc_end89
	.byte	0                       #     has no landing pad
	.byte	0                       #   On action: cleanup
.Lcst_end28:
	.p2align	2
                                        # -- End function
	.text
	.p2align	4, 0x90         # -- Begin function _ZN4core3ptr18real_drop_in_place17hc55e0a9d2dbc8282E
	.type	_ZN4core3ptr18real_drop_in_place17hc55e0a9d2dbc8282E,@function
_ZN4core3ptr18real_drop_in_place17hc55e0a9d2dbc8282E: # @_ZN4core3ptr18real_drop_in_place17hc55e0a9d2dbc8282E
	.cfi_startproc
# %bb.0:                                # %start
	movq	(%rdi), %rax
	lock		subq	$1, (%rax)
	jne	.LBB90_1
# %bb.2:                                # %bb3.i.i
	#MEMBARRIER
	jmp	_ZN5alloc4sync12Arc$LT$T$GT$9drop_slow17h0b7738850a39f860E # TAILCALL
.LBB90_1:                               # %_ZN4core3ptr18real_drop_in_place17h83449461cd471b50E.exit
	retq
.Lfunc_end90:
	.size	_ZN4core3ptr18real_drop_in_place17hc55e0a9d2dbc8282E, .Lfunc_end90-_ZN4core3ptr18real_drop_in_place17hc55e0a9d2dbc8282E
	.cfi_endproc
                                        # -- End function
	.p2align	4, 0x90         # -- Begin function _ZN4core3ptr18real_drop_in_place17hc95f04c95d6546b6E
	.type	_ZN4core3ptr18real_drop_in_place17hc95f04c95d6546b6E,@function
_ZN4core3ptr18real_drop_in_place17hc95f04c95d6546b6E: # @_ZN4core3ptr18real_drop_in_place17hc95f04c95d6546b6E
	.cfi_startproc
# %bb.0:                                # %start
	cmpq	$0, (%rdi)
	leaq	8(%rdi), %rdi
	je	.LBB91_1
# %bb.2:                                # %bb3
	jmp	_ZN4core3ptr18real_drop_in_place17h664ae0e66d8bb2d1E # TAILCALL
.LBB91_1:                               # %bb2
	jmp	_ZN4core3ptr18real_drop_in_place17ha4eaf2372c827098E # TAILCALL
.Lfunc_end91:
	.size	_ZN4core3ptr18real_drop_in_place17hc95f04c95d6546b6E, .Lfunc_end91-_ZN4core3ptr18real_drop_in_place17hc95f04c95d6546b6E
	.cfi_endproc
                                        # -- End function
	.p2align	4, 0x90         # -- Begin function _ZN4core3ptr18real_drop_in_place17hca145ce36531b1ceE
	.type	_ZN4core3ptr18real_drop_in_place17hca145ce36531b1ceE,@function
_ZN4core3ptr18real_drop_in_place17hca145ce36531b1ceE: # @_ZN4core3ptr18real_drop_in_place17hca145ce36531b1ceE
.Lfunc_begin29:
	.cfi_startproc
	.cfi_personality 3, rust_eh_personality
	.cfi_lsda 3, .Lexception29
# %bb.0:                                # %start
	pushq	%r14
	.cfi_def_cfa_offset 16
	pushq	%rbx
	.cfi_def_cfa_offset 24
	pushq	%rax
	.cfi_def_cfa_offset 32
	.cfi_offset %rbx, -24
	.cfi_offset %r14, -16
	movq	%rdi, %rbx
	movq	(%rdi), %rax
	testq	%rax, %rax
	je	.LBB92_3
# %bb.1:                                # %start
	cmpl	$1, %eax
	jne	.LBB92_2
# %bb.4:                                # %bb3
	cmpq	$0, 8(%rbx)
	je	.LBB92_2
# %bb.5:                                # %bb2.i.i
	movq	16(%rbx), %rdi
	testq	%rdi, %rdi
	je	.LBB92_2
# %bb.6:                                # %bb2.i.i.i.i
	callq	*pthread_mutex_destroy@GOTPCREL(%rip)
	movq	16(%rbx), %rdi
	movl	$40, %esi
	movl	$8, %edx
	callq	*__rust_dealloc@GOTPCREL(%rip)
	movq	32(%rbx), %rdi
	movq	40(%rbx), %rax
.Ltmp210:
	callq	*(%rax)
.Ltmp211:
# %bb.7:                                # %bb3.i.i.i.i.i.i.i
	movq	40(%rbx), %rax
	movq	8(%rax), %rsi
	testq	%rsi, %rsi
	je	.LBB92_2
# %bb.8:                                # %bb4.i.i.i.i.i.i.i.i
	movq	32(%rbx), %rdi
	movq	16(%rax), %rdx
	addq	$8, %rsp
	.cfi_def_cfa_offset 24
	popq	%rbx
	.cfi_def_cfa_offset 16
	popq	%r14
	.cfi_def_cfa_offset 8
	jmpq	*__rust_dealloc@GOTPCREL(%rip) # TAILCALL
.LBB92_2:                               # %bb1
	.cfi_def_cfa_offset 32
	addq	$8, %rsp
	.cfi_def_cfa_offset 24
	popq	%rbx
	.cfi_def_cfa_offset 16
	popq	%r14
	.cfi_def_cfa_offset 8
	retq
.LBB92_3:                               # %bb2
	.cfi_def_cfa_offset 32
	addq	$8, %rbx
	movq	%rbx, %rdi
	addq	$8, %rsp
	.cfi_def_cfa_offset 24
	popq	%rbx
	.cfi_def_cfa_offset 16
	popq	%r14
	.cfi_def_cfa_offset 8
	jmp	_ZN4core3ptr18real_drop_in_place17h8d31eaf3f74d642fE # TAILCALL
.LBB92_9:                               # %cleanup.i.i.i.i.i.i.i
	.cfi_def_cfa_offset 32
.Ltmp212:
	movq	%rax, %r14
	movq	32(%rbx), %rdi
	movq	40(%rbx), %rsi
	callq	_ZN5alloc5alloc8box_free17h39766183111e1fbdE
	movq	%r14, %rdi
	callq	_Unwind_Resume
.Lfunc_end92:
	.size	_ZN4core3ptr18real_drop_in_place17hca145ce36531b1ceE, .Lfunc_end92-_ZN4core3ptr18real_drop_in_place17hca145ce36531b1ceE
	.cfi_endproc
	.section	.gcc_except_table,"a",@progbits
	.p2align	2
GCC_except_table92:
.Lexception29:
	.byte	255                     # @LPStart Encoding = omit
	.byte	255                     # @TType Encoding = omit
	.byte	1                       # Call site Encoding = uleb128
	.uleb128 .Lcst_end29-.Lcst_begin29
.Lcst_begin29:
	.uleb128 .Ltmp210-.Lfunc_begin29 # >> Call Site 1 <<
	.uleb128 .Ltmp211-.Ltmp210      #   Call between .Ltmp210 and .Ltmp211
	.uleb128 .Ltmp212-.Lfunc_begin29 #     jumps to .Ltmp212
	.byte	0                       #   On action: cleanup
	.uleb128 .Ltmp211-.Lfunc_begin29 # >> Call Site 2 <<
	.uleb128 .Lfunc_end92-.Ltmp211  #   Call between .Ltmp211 and .Lfunc_end92
	.byte	0                       #     has no landing pad
	.byte	0                       #   On action: cleanup
.Lcst_end29:
	.p2align	2
                                        # -- End function
	.text
	.p2align	4, 0x90         # -- Begin function _ZN4core3ptr18real_drop_in_place17hcef2c7d3daf67b63E
	.type	_ZN4core3ptr18real_drop_in_place17hcef2c7d3daf67b63E,@function
_ZN4core3ptr18real_drop_in_place17hcef2c7d3daf67b63E: # @_ZN4core3ptr18real_drop_in_place17hcef2c7d3daf67b63E
.Lfunc_begin30:
	.cfi_startproc
	.cfi_personality 3, rust_eh_personality
	.cfi_lsda 3, .Lexception30
# %bb.0:                                # %start
	pushq	%rbp
	.cfi_def_cfa_offset 16
	pushq	%r15
	.cfi_def_cfa_offset 24
	pushq	%r14
	.cfi_def_cfa_offset 32
	pushq	%r13
	.cfi_def_cfa_offset 40
	pushq	%r12
	.cfi_def_cfa_offset 48
	pushq	%rbx
	.cfi_def_cfa_offset 56
	subq	$24, %rsp
	.cfi_def_cfa_offset 80
	.cfi_offset %rbx, -56
	.cfi_offset %r12, -48
	.cfi_offset %r13, -40
	.cfi_offset %r14, -32
	.cfi_offset %r15, -24
	.cfi_offset %rbp, -16
	movq	%rdi, (%rsp)            # 8-byte Spill
	movq	(%rdi), %rax
	cmpq	$1, %rax
	je	.LBB93_5
# %bb.1:                                # %start
	testq	%rax, %rax
	jne	.LBB93_63
# %bb.2:                                # %bb2.i
	movq	(%rsp), %rbx            # 8-byte Reload
	leaq	8(%rbx), %rdi
.Ltmp254:
	callq	_ZN4core3ptr18real_drop_in_place17h81ef323e0c51fdcbE
.Ltmp255:
# %bb.3:                                # %_ZN4core3ptr18real_drop_in_place17hf8834e0b188dc823E.exit.i
	movq	56(%rbx), %rdi
	movq	64(%rbx), %rax
.Ltmp259:
	callq	*24(%rax)
.Ltmp260:
	jmp	.LBB93_44
.LBB93_5:                               # %bb3.i
	movq	(%rsp), %rax            # 8-byte Reload
	leaq	8(%rax), %r15
	movq	8(%rax), %rbx
	leaq	16(%rbx), %r14
.Ltmp213:
	movq	%r14, %rdi
	callq	_ZN5tokio4task5queue19MpscQueues$LT$S$GT$12close_remote17h5516dd699ff28479E
.Ltmp214:
# %bb.6:                                # %.noexc.i.i
	movq	24(%rbx), %rax
	cmpq	32(%rbx), %rax
	je	.LBB93_11
# %bb.7:                                # %"_ZN5tokio4task5queue19MpscQueues$LT$S$GT$15next_local_task17h66b868d50e0e3c09E.exit.lr.ph.i.i.i.i.i"
	movq	_ZN5tokio4task3raw7RawTask17cancel_from_queue17hbd4722693dab0a63E@GOTPCREL(%rip), %r12
	.p2align	4, 0x90
.LBB93_8:                               # %"_ZN5tokio4task5queue19MpscQueues$LT$S$GT$15next_local_task17h66b868d50e0e3c09E.exit.i.i.i.i.i"
                                        # =>This Inner Loop Header: Depth=1
	movq	40(%rbx), %rcx
	movq	48(%rbx), %rdx
	leaq	1(%rax), %rsi
	addq	$-1, %rdx
	andq	%rsi, %rdx
	movq	%rdx, 24(%rbx)
	movq	(%rcx,%rax,8), %rbp
	testq	%rbp, %rbp
	je	.LBB93_11
# %bb.9:                                # %bb4.i.i.i.i.i
                                        #   in Loop: Header=BB93_8 Depth=1
.Ltmp215:
	movq	%rbp, %rdi
	callq	*%r12
.Ltmp216:
# %bb.10:                               # %bb9.i.i.i.i.i
                                        #   in Loop: Header=BB93_8 Depth=1
	movq	24(%rbx), %rax
	cmpq	32(%rbx), %rax
	jne	.LBB93_8
.LBB93_11:                              # %"_ZN5tokio4task5queue19MpscQueues$LT$S$GT$11close_local17h9ec770a750c931a7E.exit.i.i.i.i"
	movq	(%r14), %rbp
	testq	%rbp, %rbp
	je	.LBB93_15
	.p2align	4, 0x90
.LBB93_13:                              # %bb3.i.i.i.i.i.i
                                        # =>This Inner Loop Header: Depth=1
	movq	40(%rbp), %rax
.Ltmp220:
	movq	%rbp, %rdi
	xorl	%esi, %esi
	callq	*48(%rax)
.Ltmp221:
# %bb.14:                               # %.noexc9.i.i
                                        #   in Loop: Header=BB93_13 Depth=1
	movq	24(%rbp), %rbp
	testq	%rbp, %rbp
	jne	.LBB93_13
.LBB93_15:                              # %"_ZN5tokio4task5queue19MpscQueues$LT$S$GT$8shutdown17h625e177790819e81E.exit.i.i.i"
.Ltmp223:
	movq	%r14, %rdi
	callq	_ZN5tokio4task5queue19MpscQueues$LT$S$GT$18drain_pending_drop17hb750b93d9047f62aE
.Ltmp224:
# %bb.16:                               # %.noexc10.i.i
	movq	(%rsp), %rax            # 8-byte Reload
	leaq	16(%rax), %rbx
	leaq	24(%rax), %r12
	movq	_ZN5tokio4task3raw7RawTask17cancel_from_queue17hbd4722693dab0a63E@GOTPCREL(%rip), %r13
	.p2align	4, 0x90
.LBB93_17:                              # %bb3.i.i.i
                                        # =>This Loop Header: Depth=1
                                        #     Child Loop BB93_19 Depth 2
	movq	(%r15), %rdi
	addq	$16, %rdi
.Ltmp225:
	callq	_ZN5tokio4task5queue19MpscQueues$LT$S$GT$18drain_pending_drop17hb750b93d9047f62aE
.Ltmp226:
# %bb.18:                               # %.noexc11.i.i
                                        #   in Loop: Header=BB93_17 Depth=1
	movq	(%r15), %rbp
	.p2align	4, 0x90
.LBB93_19:                              # %.noexc11.i.i
                                        #   Parent Loop BB93_17 Depth=1
                                        # =>  This Inner Loop Header: Depth=2
	movq	24(%rbp), %rax
	cmpq	32(%rbp), %rax
	je	.LBB93_22
# %bb.20:                               # %"_ZN5tokio4task5queue19MpscQueues$LT$S$GT$15next_local_task17h66b868d50e0e3c09E.exit.i.i15.i.i.i"
                                        #   in Loop: Header=BB93_19 Depth=2
	movq	40(%rbp), %rcx
	movq	48(%rbp), %rdx
	leaq	1(%rax), %rsi
	addq	$-1, %rdx
	andq	%rsi, %rdx
	movq	%rdx, 24(%rbp)
	movq	(%rcx,%rax,8), %r14
	testq	%r14, %r14
	je	.LBB93_22
# %bb.21:                               # %bb4.i.i16.i.i.i
                                        #   in Loop: Header=BB93_19 Depth=2
.Ltmp227:
	movq	%r14, %rdi
	callq	*%r13
.Ltmp228:
	jmp	.LBB93_19
	.p2align	4, 0x90
.LBB93_22:                              # %"_ZN5tokio4task5queue19MpscQueues$LT$S$GT$12drain_queues17h274389cac057f87bE.exit.i.i.i"
                                        #   in Loop: Header=BB93_17 Depth=1
	addq	$16, %rbp
.Ltmp232:
	movq	%rbp, %rdi
	callq	_ZN5tokio4task5queue19MpscQueues$LT$S$GT$12close_remote17h5516dd699ff28479E
.Ltmp233:
# %bb.23:                               # %.noexc13.i.i
                                        #   in Loop: Header=BB93_17 Depth=1
	movq	(%r15), %rax
	cmpq	$0, 16(%rax)
	je	.LBB93_41
# %bb.24:                               # %bb10.i.i.i
                                        #   in Loop: Header=BB93_17 Depth=1
	cmpl	$1, (%rbx)
	jne	.LBB93_25
# %bb.35:                               # %bb5.i.i.i.i
                                        #   in Loop: Header=BB93_17 Depth=1
.Ltmp239:
	movq	%r12, %rdi
	callq	*_ZN69_$LT$tokio..park..thread..ParkThread$u20$as$u20$tokio..park..Park$GT$4park17he4f05110cc421267E@GOTPCREL(%rip)
.Ltmp240:
# %bb.36:                               # %.noexc15.i.i
                                        #   in Loop: Header=BB93_17 Depth=1
	testb	%al, %al
	je	.LBB93_17
	jmp	.LBB93_32
	.p2align	4, 0x90
.LBB93_25:                              # %bb2.i24.i.i.i
                                        #   in Loop: Header=BB93_17 Depth=1
.Ltmp234:
	leaq	8(%rsp), %rdi
	movq	%r12, %rsi
	callq	*_ZN63_$LT$tokio..io..driver..Driver$u20$as$u20$tokio..park..Park$GT$4park17hdb7d962184c1111eE@GOTPCREL(%rip)
.Ltmp235:
# %bb.26:                               # %.noexc14.i.i
                                        #   in Loop: Header=BB93_17 Depth=1
	movb	8(%rsp), %al
	cmpb	$3, %al
	je	.LBB93_17
# %bb.27:                               # %bb7.i.i.i.i
	cmpb	$2, %al
	jb	.LBB93_32
# %bb.28:                               # %bb2.i.i.i.i.i.i.i.i
	movq	16(%rsp), %r12
	movq	(%r12), %rdi
	movq	8(%r12), %rax
.Ltmp236:
	callq	*(%rax)
.Ltmp237:
# %bb.29:                               # %bb3.i.i.i.i.i.i.i.i.i.i.i
	movq	8(%r12), %rax
	movq	8(%rax), %rsi
	testq	%rsi, %rsi
	je	.LBB93_31
# %bb.30:                               # %bb4.i.i.i.i.i.i.i.i.i.i.i.i
	movq	(%r12), %rdi
	movq	16(%rax), %rdx
	callq	*__rust_dealloc@GOTPCREL(%rip)
.LBB93_31:                              # %_ZN4core3ptr18real_drop_in_place17h27b9bb4166fdb623E.exit.i.i.i.i.i.i.i.i
	movl	$24, %esi
	movl	$8, %edx
	movq	%r12, %rdi
	callq	*__rust_dealloc@GOTPCREL(%rip)
.LBB93_32:                              # %bb2.i.i.i.i
.Ltmp242:
	movl	$.Lanon.112aa5216417f3e30cbfa40815f3b444.60, %edi
	movl	$11, %esi
	callq	*_ZN4core6option13expect_failed17h7475be656707bdc0E@GOTPCREL(%rip)
.Ltmp243:
# %bb.38:                               # %.noexc16.i.i
.LBB93_63:                              # %bb4.i
	movq	(%rsp), %rax            # 8-byte Reload
	leaq	8(%rax), %rbx
.Ltmp261:
	movq	%rbx, %rdi
	callq	*_ZN81_$LT$tokio..runtime..thread_pool..ThreadPool$u20$as$u20$core..ops..drop..Drop$GT$4drop17h6d6012278c1f3cebE@GOTPCREL(%rip)
.Ltmp262:
# %bb.64:                               # %bb4.i.i
	movq	(%rbx), %rax
	lock		subq	$1, (%rax)
	jne	.LBB93_44
# %bb.65:                               # %bb3.i.i.i.i.i
	#MEMBARRIER
.Ltmp266:
	movq	%rbx, %rdi
	callq	_ZN5alloc4sync12Arc$LT$T$GT$9drop_slow17hbcd17717d774df8bE
.Ltmp267:
	jmp	.LBB93_44
.LBB93_41:                              # %bb6.i.i
	lock		subq	$1, (%rax)
	jne	.LBB93_43
# %bb.42:                               # %bb3.i.i.i.i
	#MEMBARRIER
.Ltmp247:
	movq	%r15, %rdi
	callq	_ZN5alloc4sync12Arc$LT$T$GT$9drop_slow17h9b2e2fe3654c86e4E
.Ltmp248:
.LBB93_43:                              # %_ZN4core3ptr18real_drop_in_place17h92b7e42b9b0e393eE.exit.i
.Ltmp252:
	movq	%rbx, %rdi
	callq	_ZN4core3ptr18real_drop_in_place17h81ef323e0c51fdcbE
.Ltmp253:
.LBB93_44:                              # %bb6
	movq	(%rsp), %rbx            # 8-byte Reload
	leaq	72(%rbx), %rdi
.Ltmp269:
	callq	_ZN4core3ptr18real_drop_in_place17he00dcfa818232a3eE
.Ltmp270:
# %bb.45:                               # %bb5
	addq	$104, %rbx
.Ltmp272:
	movq	%rbx, %rdi
	callq	*_ZN86_$LT$tokio..runtime..blocking..pool..BlockingPool$u20$as$u20$core..ops..drop..Drop$GT$4drop17h10138d17d10c68f9E@GOTPCREL(%rip)
.Ltmp273:
# %bb.46:                               # %bb6.i
	movq	(%rbx), %rax
	lock		subq	$1, (%rax)
	jne	.LBB93_48
# %bb.47:                               # %bb3.i.i.i.i17
	#MEMBARRIER
.Ltmp275:
	movq	%rbx, %rdi
	callq	_ZN5alloc4sync12Arc$LT$T$GT$9drop_slow17h0b7738850a39f860E
.Ltmp276:
.LBB93_48:                              # %_ZN4core3ptr18real_drop_in_place17hd05fa7a969137952E.exit
	movq	(%rsp), %r14            # 8-byte Reload
	movq	112(%r14), %rbp
	testq	%rbp, %rbp
	je	.LBB93_70
# %bb.49:                               # %bb2.i.i.i
	addq	$112, %r14
	leaq	16(%rbp), %rdi
.Ltmp278:
	callq	*_ZN5tokio4sync7oneshot5State10set_closed17h1245aa12b7db01aeE@GOTPCREL(%rip)
.Ltmp279:
# %bb.50:                               # %_7.i.i.noexc.i.i
	movq	%rax, %rbx
.Ltmp280:
	movq	%rax, %rdi
	callq	*_ZN5tokio4sync7oneshot5State14is_tx_task_set17h1483fb4bbe76be02E@GOTPCREL(%rip)
.Ltmp281:
# %bb.51:                               # %.noexc.i.i20
	testb	%al, %al
	je	.LBB93_55
# %bb.52:                               # %bb4.i.i.i.i
.Ltmp282:
	movq	%rbx, %rdi
	callq	*_ZN5tokio4sync7oneshot5State11is_complete17h783483c417cbb1fbE@GOTPCREL(%rip)
.Ltmp283:
# %bb.53:                               # %.noexc5.i.i
	testb	%al, %al
	jne	.LBB93_55
# %bb.54:                               # %bb8.i.i.i.i
	movq	24(%rbp), %rdi
	movq	32(%rbp), %rax
.Ltmp284:
	callq	*16(%rax)
.Ltmp285:
.LBB93_55:                              # %bb4.i.i21
	movq	(%r14), %rax
	testq	%rax, %rax
	je	.LBB93_70
# %bb.56:                               # %bb2.i7.i.i
	lock		subq	$1, (%rax)
	jne	.LBB93_70
# %bb.57:                               # %bb3.i.i.i.i.i24
	#MEMBARRIER
	movq	%r14, %rdi
	addq	$24, %rsp
	.cfi_def_cfa_offset 56
	popq	%rbx
	.cfi_def_cfa_offset 48
	popq	%r12
	.cfi_def_cfa_offset 40
	popq	%r13
	.cfi_def_cfa_offset 32
	popq	%r14
	.cfi_def_cfa_offset 24
	popq	%r15
	.cfi_def_cfa_offset 16
	popq	%rbp
	.cfi_def_cfa_offset 8
	jmp	_ZN5alloc4sync12Arc$LT$T$GT$9drop_slow17hdf925423c13282e1E # TAILCALL
.LBB93_70:                              # %_ZN4core3ptr18real_drop_in_place17h0e7bfccaa03490aaE.exit
	.cfi_def_cfa_offset 80
	addq	$24, %rsp
	.cfi_def_cfa_offset 56
	popq	%rbx
	.cfi_def_cfa_offset 48
	popq	%r12
	.cfi_def_cfa_offset 40
	popq	%r13
	.cfi_def_cfa_offset 32
	popq	%r14
	.cfi_def_cfa_offset 24
	popq	%r15
	.cfi_def_cfa_offset 16
	popq	%rbp
	.cfi_def_cfa_offset 8
	retq
.LBB93_37:                              # %cleanup.i.i.i.i.i.i.i.i.i.i.i
	.cfi_def_cfa_offset 80
.Ltmp238:
	movq	%rax, %r13
	movq	(%r12), %rdi
	movq	8(%r12), %rsi
	callq	_ZN5alloc5alloc8box_free17h39766183111e1fbdE
	movq	%r12, %rdi
	callq	_ZN5alloc5alloc8box_free17ha829dafaf86a282fE
	jmp	.LBB93_62
.LBB93_39:                              # %cleanup1.i.i
.Ltmp249:
	movq	%rax, %r13
	jmp	.LBB93_40
.LBB93_66:                              # %cleanup.i2.i
.Ltmp263:
	movq	%rax, %r13
.Ltmp264:
	movq	%rbx, %rdi
	callq	_ZN4core3ptr18real_drop_in_place17hd3a88f295e85c32eE
.Ltmp265:
	jmp	.LBB93_72
.LBB93_4:                               # %cleanup.i.i
.Ltmp256:
	movq	%rax, %r13
	leaq	56(%rbx), %rdi
.Ltmp257:
	callq	_ZN4core3ptr18real_drop_in_place17hb226c2f8ad269285E
.Ltmp258:
	jmp	.LBB93_72
.LBB93_69:                              # %cleanup1.i
.Ltmp277:
	movq	%rax, %r13
	jmp	.LBB93_68
.LBB93_67:                              # %cleanup.i
.Ltmp274:
	movq	%rax, %r13
	movq	%rbx, %rdi
	callq	_ZN4core3ptr18real_drop_in_place17hc55e0a9d2dbc8282E
.LBB93_68:                              # %bb3.i14
	movq	(%rsp), %rdi            # 8-byte Reload
	addq	$112, %rdi
	callq	_ZN4core3ptr18real_drop_in_place17h0e7bfccaa03490aaE
	movq	%r13, %rdi
	callq	_Unwind_Resume
.LBB93_74:                              # %cleanup1
.Ltmp271:
	movq	%rax, %r13
	jmp	.LBB93_73
.LBB93_75:                              # %cleanup.i.i25
.Ltmp286:
	movq	%rax, %r13
	movq	%r14, %rdi
	callq	_ZN4core3ptr18real_drop_in_place17h42c5a505e750659bE
	movq	%r13, %rdi
	callq	_Unwind_Resume
.LBB93_33:                              # %bb1.i.i.i.i.i.i
.Ltmp217:
	movq	%rax, %r13
.Ltmp218:
	movq	%rbp, %rdi
	callq	_ZN4core3ptr18real_drop_in_place17h032bb3b7232478c2E
.Ltmp219:
	jmp	.LBB93_62
.LBB93_59:                              # %cleanup.loopexit.split-lp.loopexit.i.i
.Ltmp222:
	jmp	.LBB93_61
.LBB93_58:                              # %cleanup.loopexit.i.i
.Ltmp241:
.LBB93_61:                              # %cleanup.body.i.i
	movq	%rax, %r13
	jmp	.LBB93_62
.LBB93_34:                              # %bb1.i.i.i17.i.i.i
.Ltmp229:
	movq	%rax, %r13
.Ltmp230:
	movq	%r14, %rdi
	callq	_ZN4core3ptr18real_drop_in_place17h032bb3b7232478c2E
.Ltmp231:
.LBB93_62:                              # %cleanup.body.i.i
.Ltmp245:
	movq	%r15, %rdi
	callq	_ZN4core3ptr18real_drop_in_place17h7d623c73fcbe815dE
.Ltmp246:
.LBB93_40:                              # %bb3.i.i
	movq	(%rsp), %rax            # 8-byte Reload
	leaq	16(%rax), %rdi
.Ltmp250:
	callq	_ZN4core3ptr18real_drop_in_place17he20b4888eb52bdffE
.Ltmp251:
.LBB93_72:                              # %cleanup.body
	movq	(%rsp), %rbx            # 8-byte Reload
	leaq	72(%rbx), %rdi
	callq	_ZN4core3ptr18real_drop_in_place17he00dcfa818232a3eE
.LBB93_73:                              # %bb3
	addq	$104, %rbx
	movq	%rbx, %rdi
	callq	_ZN4core3ptr18real_drop_in_place17hd05fa7a969137952E
	movq	%r13, %rdi
	callq	_Unwind_Resume
.LBB93_60:                              # %cleanup.loopexit.split-lp.loopexit.split-lp.i.i
.Ltmp244:
	jmp	.LBB93_61
.LBB93_71:                              # %cleanup
.Ltmp268:
	movq	%rax, %r13
	jmp	.LBB93_72
.Lfunc_end93:
	.size	_ZN4core3ptr18real_drop_in_place17hcef2c7d3daf67b63E, .Lfunc_end93-_ZN4core3ptr18real_drop_in_place17hcef2c7d3daf67b63E
	.cfi_endproc
	.section	.gcc_except_table,"a",@progbits
	.p2align	2
GCC_except_table93:
.Lexception30:
	.byte	255                     # @LPStart Encoding = omit
	.byte	255                     # @TType Encoding = omit
	.byte	1                       # Call site Encoding = uleb128
	.uleb128 .Lcst_end30-.Lcst_begin30
.Lcst_begin30:
	.uleb128 .Ltmp254-.Lfunc_begin30 # >> Call Site 1 <<
	.uleb128 .Ltmp255-.Ltmp254      #   Call between .Ltmp254 and .Ltmp255
	.uleb128 .Ltmp256-.Lfunc_begin30 #     jumps to .Ltmp256
	.byte	0                       #   On action: cleanup
	.uleb128 .Ltmp259-.Lfunc_begin30 # >> Call Site 2 <<
	.uleb128 .Ltmp260-.Ltmp259      #   Call between .Ltmp259 and .Ltmp260
	.uleb128 .Ltmp268-.Lfunc_begin30 #     jumps to .Ltmp268
	.byte	0                       #   On action: cleanup
	.uleb128 .Ltmp213-.Lfunc_begin30 # >> Call Site 3 <<
	.uleb128 .Ltmp214-.Ltmp213      #   Call between .Ltmp213 and .Ltmp214
	.uleb128 .Ltmp244-.Lfunc_begin30 #     jumps to .Ltmp244
	.byte	0                       #   On action: cleanup
	.uleb128 .Ltmp215-.Lfunc_begin30 # >> Call Site 4 <<
	.uleb128 .Ltmp216-.Ltmp215      #   Call between .Ltmp215 and .Ltmp216
	.uleb128 .Ltmp217-.Lfunc_begin30 #     jumps to .Ltmp217
	.byte	0                       #   On action: cleanup
	.uleb128 .Ltmp220-.Lfunc_begin30 # >> Call Site 5 <<
	.uleb128 .Ltmp221-.Ltmp220      #   Call between .Ltmp220 and .Ltmp221
	.uleb128 .Ltmp222-.Lfunc_begin30 #     jumps to .Ltmp222
	.byte	0                       #   On action: cleanup
	.uleb128 .Ltmp223-.Lfunc_begin30 # >> Call Site 6 <<
	.uleb128 .Ltmp224-.Ltmp223      #   Call between .Ltmp223 and .Ltmp224
	.uleb128 .Ltmp244-.Lfunc_begin30 #     jumps to .Ltmp244
	.byte	0                       #   On action: cleanup
	.uleb128 .Ltmp225-.Lfunc_begin30 # >> Call Site 7 <<
	.uleb128 .Ltmp226-.Ltmp225      #   Call between .Ltmp225 and .Ltmp226
	.uleb128 .Ltmp241-.Lfunc_begin30 #     jumps to .Ltmp241
	.byte	0                       #   On action: cleanup
	.uleb128 .Ltmp227-.Lfunc_begin30 # >> Call Site 8 <<
	.uleb128 .Ltmp228-.Ltmp227      #   Call between .Ltmp227 and .Ltmp228
	.uleb128 .Ltmp229-.Lfunc_begin30 #     jumps to .Ltmp229
	.byte	0                       #   On action: cleanup
	.uleb128 .Ltmp232-.Lfunc_begin30 # >> Call Site 9 <<
	.uleb128 .Ltmp235-.Ltmp232      #   Call between .Ltmp232 and .Ltmp235
	.uleb128 .Ltmp241-.Lfunc_begin30 #     jumps to .Ltmp241
	.byte	0                       #   On action: cleanup
	.uleb128 .Ltmp236-.Lfunc_begin30 # >> Call Site 10 <<
	.uleb128 .Ltmp237-.Ltmp236      #   Call between .Ltmp236 and .Ltmp237
	.uleb128 .Ltmp238-.Lfunc_begin30 #     jumps to .Ltmp238
	.byte	0                       #   On action: cleanup
	.uleb128 .Ltmp242-.Lfunc_begin30 # >> Call Site 11 <<
	.uleb128 .Ltmp243-.Ltmp242      #   Call between .Ltmp242 and .Ltmp243
	.uleb128 .Ltmp244-.Lfunc_begin30 #     jumps to .Ltmp244
	.byte	0                       #   On action: cleanup
	.uleb128 .Ltmp261-.Lfunc_begin30 # >> Call Site 12 <<
	.uleb128 .Ltmp262-.Ltmp261      #   Call between .Ltmp261 and .Ltmp262
	.uleb128 .Ltmp263-.Lfunc_begin30 #     jumps to .Ltmp263
	.byte	0                       #   On action: cleanup
	.uleb128 .Ltmp266-.Lfunc_begin30 # >> Call Site 13 <<
	.uleb128 .Ltmp267-.Ltmp266      #   Call between .Ltmp266 and .Ltmp267
	.uleb128 .Ltmp268-.Lfunc_begin30 #     jumps to .Ltmp268
	.byte	0                       #   On action: cleanup
	.uleb128 .Ltmp247-.Lfunc_begin30 # >> Call Site 14 <<
	.uleb128 .Ltmp248-.Ltmp247      #   Call between .Ltmp247 and .Ltmp248
	.uleb128 .Ltmp249-.Lfunc_begin30 #     jumps to .Ltmp249
	.byte	0                       #   On action: cleanup
	.uleb128 .Ltmp252-.Lfunc_begin30 # >> Call Site 15 <<
	.uleb128 .Ltmp253-.Ltmp252      #   Call between .Ltmp252 and .Ltmp253
	.uleb128 .Ltmp268-.Lfunc_begin30 #     jumps to .Ltmp268
	.byte	0                       #   On action: cleanup
	.uleb128 .Ltmp269-.Lfunc_begin30 # >> Call Site 16 <<
	.uleb128 .Ltmp270-.Ltmp269      #   Call between .Ltmp269 and .Ltmp270
	.uleb128 .Ltmp271-.Lfunc_begin30 #     jumps to .Ltmp271
	.byte	0                       #   On action: cleanup
	.uleb128 .Ltmp272-.Lfunc_begin30 # >> Call Site 17 <<
	.uleb128 .Ltmp273-.Ltmp272      #   Call between .Ltmp272 and .Ltmp273
	.uleb128 .Ltmp274-.Lfunc_begin30 #     jumps to .Ltmp274
	.byte	0                       #   On action: cleanup
	.uleb128 .Ltmp275-.Lfunc_begin30 # >> Call Site 18 <<
	.uleb128 .Ltmp276-.Ltmp275      #   Call between .Ltmp275 and .Ltmp276
	.uleb128 .Ltmp277-.Lfunc_begin30 #     jumps to .Ltmp277
	.byte	0                       #   On action: cleanup
	.uleb128 .Ltmp278-.Lfunc_begin30 # >> Call Site 19 <<
	.uleb128 .Ltmp285-.Ltmp278      #   Call between .Ltmp278 and .Ltmp285
	.uleb128 .Ltmp286-.Lfunc_begin30 #     jumps to .Ltmp286
	.byte	0                       #   On action: cleanup
	.uleb128 .Ltmp285-.Lfunc_begin30 # >> Call Site 20 <<
	.uleb128 .Ltmp264-.Ltmp285      #   Call between .Ltmp285 and .Ltmp264
	.byte	0                       #     has no landing pad
	.byte	0                       #   On action: cleanup
	.uleb128 .Ltmp264-.Lfunc_begin30 # >> Call Site 21 <<
	.uleb128 .Ltmp258-.Ltmp264      #   Call between .Ltmp264 and .Ltmp258
	.uleb128 .Ltmp268-.Lfunc_begin30 #     jumps to .Ltmp268
	.byte	0                       #   On action: cleanup
	.uleb128 .Ltmp258-.Lfunc_begin30 # >> Call Site 22 <<
	.uleb128 .Ltmp218-.Ltmp258      #   Call between .Ltmp258 and .Ltmp218
	.byte	0                       #     has no landing pad
	.byte	0                       #   On action: cleanup
	.uleb128 .Ltmp218-.Lfunc_begin30 # >> Call Site 23 <<
	.uleb128 .Ltmp231-.Ltmp218      #   Call between .Ltmp218 and .Ltmp231
	.uleb128 .Ltmp244-.Lfunc_begin30 #     jumps to .Ltmp244
	.byte	0                       #   On action: cleanup
	.uleb128 .Ltmp245-.Lfunc_begin30 # >> Call Site 24 <<
	.uleb128 .Ltmp251-.Ltmp245      #   Call between .Ltmp245 and .Ltmp251
	.uleb128 .Ltmp268-.Lfunc_begin30 #     jumps to .Ltmp268
	.byte	0                       #   On action: cleanup
	.uleb128 .Ltmp251-.Lfunc_begin30 # >> Call Site 25 <<
	.uleb128 .Lfunc_end93-.Ltmp251  #   Call between .Ltmp251 and .Lfunc_end93
	.byte	0                       #     has no landing pad
	.byte	0                       #   On action: cleanup
.Lcst_end30:
	.p2align	2
                                        # -- End function
	.text
	.p2align	4, 0x90         # -- Begin function _ZN4core3ptr18real_drop_in_place17hd05fa7a969137952E
	.type	_ZN4core3ptr18real_drop_in_place17hd05fa7a969137952E,@function
_ZN4core3ptr18real_drop_in_place17hd05fa7a969137952E: # @_ZN4core3ptr18real_drop_in_place17hd05fa7a969137952E
.Lfunc_begin31:
	.cfi_startproc
	.cfi_personality 3, rust_eh_personality
	.cfi_lsda 3, .Lexception31
# %bb.0:                                # %start
	pushq	%r14
	.cfi_def_cfa_offset 16
	pushq	%rbx
	.cfi_def_cfa_offset 24
	pushq	%rax
	.cfi_def_cfa_offset 32
	.cfi_offset %rbx, -24
	.cfi_offset %r14, -16
	movq	%rdi, %rbx
.Ltmp287:
	callq	*_ZN86_$LT$tokio..runtime..blocking..pool..BlockingPool$u20$as$u20$core..ops..drop..Drop$GT$4drop17h10138d17d10c68f9E@GOTPCREL(%rip)
.Ltmp288:
# %bb.1:                                # %bb6
	movq	(%rbx), %rax
	lock		subq	$1, (%rax)
	jne	.LBB94_3
# %bb.2:                                # %bb3.i.i.i
	#MEMBARRIER
.Ltmp290:
	movq	%rbx, %rdi
	callq	_ZN5alloc4sync12Arc$LT$T$GT$9drop_slow17h0b7738850a39f860E
.Ltmp291:
.LBB94_3:                               # %bb5
	addq	$8, %rbx
	movq	%rbx, %rdi
	addq	$8, %rsp
	.cfi_def_cfa_offset 24
	popq	%rbx
	.cfi_def_cfa_offset 16
	popq	%r14
	.cfi_def_cfa_offset 8
	jmp	_ZN4core3ptr18real_drop_in_place17h0e7bfccaa03490aaE # TAILCALL
.LBB94_6:                               # %cleanup1
	.cfi_def_cfa_offset 32
.Ltmp292:
	movq	%rax, %r14
	jmp	.LBB94_5
.LBB94_4:                               # %cleanup
.Ltmp289:
	movq	%rax, %r14
	movq	%rbx, %rdi
	callq	_ZN4core3ptr18real_drop_in_place17hc55e0a9d2dbc8282E
.LBB94_5:                               # %bb3
	addq	$8, %rbx
	movq	%rbx, %rdi
	callq	_ZN4core3ptr18real_drop_in_place17h0e7bfccaa03490aaE
	movq	%r14, %rdi
	callq	_Unwind_Resume
.Lfunc_end94:
	.size	_ZN4core3ptr18real_drop_in_place17hd05fa7a969137952E, .Lfunc_end94-_ZN4core3ptr18real_drop_in_place17hd05fa7a969137952E
	.cfi_endproc
	.section	.gcc_except_table,"a",@progbits
	.p2align	2
GCC_except_table94:
.Lexception31:
	.byte	255                     # @LPStart Encoding = omit
	.byte	255                     # @TType Encoding = omit
	.byte	1                       # Call site Encoding = uleb128
	.uleb128 .Lcst_end31-.Lcst_begin31
.Lcst_begin31:
	.uleb128 .Ltmp287-.Lfunc_begin31 # >> Call Site 1 <<
	.uleb128 .Ltmp288-.Ltmp287      #   Call between .Ltmp287 and .Ltmp288
	.uleb128 .Ltmp289-.Lfunc_begin31 #     jumps to .Ltmp289
	.byte	0                       #   On action: cleanup
	.uleb128 .Ltmp290-.Lfunc_begin31 # >> Call Site 2 <<
	.uleb128 .Ltmp291-.Ltmp290      #   Call between .Ltmp290 and .Ltmp291
	.uleb128 .Ltmp292-.Lfunc_begin31 #     jumps to .Ltmp292
	.byte	0                       #   On action: cleanup
	.uleb128 .Ltmp291-.Lfunc_begin31 # >> Call Site 3 <<
	.uleb128 .Lfunc_end94-.Ltmp291  #   Call between .Ltmp291 and .Lfunc_end94
	.byte	0                       #     has no landing pad
	.byte	0                       #   On action: cleanup
.Lcst_end31:
	.p2align	2
                                        # -- End function
	.text
	.p2align	4, 0x90         # -- Begin function _ZN4core3ptr18real_drop_in_place17hd1b3236be8bd03eaE
	.type	_ZN4core3ptr18real_drop_in_place17hd1b3236be8bd03eaE,@function
_ZN4core3ptr18real_drop_in_place17hd1b3236be8bd03eaE: # @_ZN4core3ptr18real_drop_in_place17hd1b3236be8bd03eaE
	.cfi_startproc
# %bb.0:                                # %start
	movq	16(%rdi), %rsi
	testq	%rsi, %rsi
	je	.LBB95_1
# %bb.2:                                # %bb4.i.i
	movq	8(%rdi), %rdi
	movl	$1, %edx
	jmpq	*__rust_dealloc@GOTPCREL(%rip) # TAILCALL
.LBB95_1:                               # %_ZN4core3ptr18real_drop_in_place17h4f94441d06411884E.exit
	retq
.Lfunc_end95:
	.size	_ZN4core3ptr18real_drop_in_place17hd1b3236be8bd03eaE, .Lfunc_end95-_ZN4core3ptr18real_drop_in_place17hd1b3236be8bd03eaE
	.cfi_endproc
                                        # -- End function
	.p2align	4, 0x90         # -- Begin function _ZN4core3ptr18real_drop_in_place17hd3a88f295e85c32eE
	.type	_ZN4core3ptr18real_drop_in_place17hd3a88f295e85c32eE,@function
_ZN4core3ptr18real_drop_in_place17hd3a88f295e85c32eE: # @_ZN4core3ptr18real_drop_in_place17hd3a88f295e85c32eE
	.cfi_startproc
# %bb.0:                                # %start
	movq	(%rdi), %rax
	lock		subq	$1, (%rax)
	jne	.LBB96_1
# %bb.2:                                # %bb3.i.i
	#MEMBARRIER
	jmp	_ZN5alloc4sync12Arc$LT$T$GT$9drop_slow17hbcd17717d774df8bE # TAILCALL
.LBB96_1:                               # %_ZN4core3ptr18real_drop_in_place17h49f6b6a2e267827aE.exit
	retq
.Lfunc_end96:
	.size	_ZN4core3ptr18real_drop_in_place17hd3a88f295e85c32eE, .Lfunc_end96-_ZN4core3ptr18real_drop_in_place17hd3a88f295e85c32eE
	.cfi_endproc
                                        # -- End function
	.p2align	4, 0x90         # -- Begin function _ZN4core3ptr18real_drop_in_place17hdd203de3b0125c5fE
	.type	_ZN4core3ptr18real_drop_in_place17hdd203de3b0125c5fE,@function
_ZN4core3ptr18real_drop_in_place17hdd203de3b0125c5fE: # @_ZN4core3ptr18real_drop_in_place17hdd203de3b0125c5fE
	.cfi_startproc
# %bb.0:                                # %start
	pushq	%rax
	.cfi_def_cfa_offset 16
	movl	8(%rdi), %eax
	cmpl	$3, %eax
	je	.LBB97_3
# %bb.1:                                # %start
	cmpl	$4, %eax
	jne	.LBB97_8
# %bb.2:                                # %bb11.i.i
	addq	$16, %rdi
	callq	_ZN4core3ptr18real_drop_in_place17ha4eaf2372c827098E
	popq	%rax
	.cfi_def_cfa_offset 8
	retq
.LBB97_3:                               # %bb18.i.i
	.cfi_def_cfa_offset 16
	cmpl	$3, 88(%rdi)
	jne	.LBB97_8
# %bb.4:                                # %bb12.i.i.i.i
	cmpl	$0, 48(%rdi)
	je	.LBB97_8
# %bb.5:                                # %bb2.i.i.i.i.i
	movq	56(%rdi), %rax
	movq	$0, 56(%rdi)
	testq	%rax, %rax
	je	.LBB97_8
# %bb.6:                                # %bb2.i.i.i.i.i.i.i
	movq	%rax, (%rsp)
	movq	%rsp, %rdi
	callq	*_ZN5tokio4task3raw7RawTask6header17h887b575297842f2aE@GOTPCREL(%rip)
	movq	%rax, %rdi
	callq	*_ZN5tokio4task5state5State21drop_join_handle_fast17hda3cbd0e3b0dff84E@GOTPCREL(%rip)
	testb	%al, %al
	jne	.LBB97_8
# %bb.7:                                # %bb5.i.i.i.i.i.i.i
	movq	(%rsp), %rdi
	callq	*_ZN5tokio4task3raw7RawTask21drop_join_handle_slow17h0a08c8ada2900777E@GOTPCREL(%rip)
.LBB97_8:                               # %_ZN4core3ptr18real_drop_in_place17hbd2dea592d9bfd01E.exit
	popq	%rax
	.cfi_def_cfa_offset 8
	retq
.Lfunc_end97:
	.size	_ZN4core3ptr18real_drop_in_place17hdd203de3b0125c5fE, .Lfunc_end97-_ZN4core3ptr18real_drop_in_place17hdd203de3b0125c5fE
	.cfi_endproc
                                        # -- End function
	.p2align	4, 0x90         # -- Begin function _ZN4core3ptr18real_drop_in_place17hdfcb5327f06b8e36E
	.type	_ZN4core3ptr18real_drop_in_place17hdfcb5327f06b8e36E,@function
_ZN4core3ptr18real_drop_in_place17hdfcb5327f06b8e36E: # @_ZN4core3ptr18real_drop_in_place17hdfcb5327f06b8e36E
	.cfi_startproc
# %bb.0:                                # %start
	cmpl	$0, (%rdi)
	je	.LBB98_5
# %bb.1:                                # %bb2
	movq	24(%rdi), %rcx
	movq	32(%rdi), %rax
	subq	%rcx, %rax
	.p2align	4, 0x90
.LBB98_2:                               # %bb4.i.i
                                        # =>This Inner Loop Header: Depth=1
	testq	%rax, %rax
	je	.LBB98_4
# %bb.3:                                # %"_ZN72_$LT$$RF$mut$u20$I$u20$as$u20$core..iter..traits..iterator..Iterator$GT$4next17hbfa7904ad84011c1E.exit.i.i"
                                        #   in Loop: Header=BB98_2 Depth=1
	leaq	32(%rcx), %rdx
	movq	%rdx, 24(%rdi)
	addq	$-32, %rax
	cmpl	$2, (%rcx)
	movq	%rdx, %rcx
	jne	.LBB98_2
.LBB98_4:                               # %bb9.i.i
	movq	16(%rdi), %rsi
	testq	%rsi, %rsi
	je	.LBB98_5
# %bb.6:                                # %bb4.i.i.i.i.i
	movq	8(%rdi), %rdi
	shlq	$5, %rsi
	movl	$4, %edx
	jmpq	*__rust_dealloc@GOTPCREL(%rip) # TAILCALL
.LBB98_5:                               # %bb1
	retq
.Lfunc_end98:
	.size	_ZN4core3ptr18real_drop_in_place17hdfcb5327f06b8e36E, .Lfunc_end98-_ZN4core3ptr18real_drop_in_place17hdfcb5327f06b8e36E
	.cfi_endproc
                                        # -- End function
	.p2align	4, 0x90         # -- Begin function _ZN4core3ptr18real_drop_in_place17he00dcfa818232a3eE
	.type	_ZN4core3ptr18real_drop_in_place17he00dcfa818232a3eE,@function
_ZN4core3ptr18real_drop_in_place17he00dcfa818232a3eE: # @_ZN4core3ptr18real_drop_in_place17he00dcfa818232a3eE
.Lfunc_begin32:
	.cfi_startproc
	.cfi_personality 3, rust_eh_personality
	.cfi_lsda 3, .Lexception32
# %bb.0:                                # %start
	pushq	%r14
	.cfi_def_cfa_offset 16
	pushq	%rbx
	.cfi_def_cfa_offset 24
	pushq	%rax
	.cfi_def_cfa_offset 32
	.cfi_offset %rbx, -24
	.cfi_offset %r14, -16
	movq	%rdi, %rbx
	movq	(%rdi), %rax
	testq	%rax, %rax
	je	.LBB99_4
# %bb.1:                                # %start
	cmpl	$1, %eax
	jne	.LBB99_9
# %bb.2:                                # %bb2.i
	movq	8(%rbx), %rax
	lock		subq	$1, (%rax)
	jne	.LBB99_4
# %bb.3:                                # %bb3.i.i.i.i
	leaq	8(%rbx), %rdi
	#MEMBARRIER
.Ltmp293:
	callq	_ZN5alloc4sync12Arc$LT$T$GT$9drop_slow17h9b2e2fe3654c86e4E
.Ltmp294:
	jmp	.LBB99_4
.LBB99_9:                               # %bb3.i
	movq	8(%rbx), %rax
	lock		subq	$1, (%rax)
	jne	.LBB99_4
# %bb.10:                               # %bb3.i.i.i4.i
	leaq	8(%rbx), %rdi
	#MEMBARRIER
.Ltmp295:
	callq	_ZN5alloc4sync12Arc$LT$T$GT$9drop_slow17hbcd17717d774df8bE
.Ltmp296:
.LBB99_4:                               # %bb6
	movq	16(%rbx), %rax
	leaq	1(%rax), %rcx
	cmpq	$2, %rcx
	jae	.LBB99_5
.LBB99_7:                               # %bb5
	movq	24(%rbx), %rax
	lock		subq	$1, (%rax)
	jne	.LBB99_8
# %bb.12:                               # %bb3.i.i.i
	addq	$24, %rbx
	#MEMBARRIER
	movq	%rbx, %rdi
	addq	$8, %rsp
	.cfi_def_cfa_offset 24
	popq	%rbx
	.cfi_def_cfa_offset 16
	popq	%r14
	.cfi_def_cfa_offset 8
	jmp	_ZN5alloc4sync12Arc$LT$T$GT$9drop_slow17h0b7738850a39f860E # TAILCALL
.LBB99_8:                               # %_ZN4core3ptr18real_drop_in_place17hc55e0a9d2dbc8282E.exit
	.cfi_def_cfa_offset 32
	addq	$8, %rsp
	.cfi_def_cfa_offset 24
	popq	%rbx
	.cfi_def_cfa_offset 16
	popq	%r14
	.cfi_def_cfa_offset 8
	retq
.LBB99_5:                               # %bb3.i.i.i.i9
	.cfi_def_cfa_offset 32
	lock		subq	$1, 8(%rax)
	jne	.LBB99_7
# %bb.6:                                # %bb6.i.i.i.i
	#MEMBARRIER
	movq	16(%rbx), %rdi
	movl	$144, %esi
	movl	$8, %edx
	callq	*__rust_dealloc@GOTPCREL(%rip)
	jmp	.LBB99_7
.LBB99_11:                              # %bb3
.Ltmp297:
	movq	%rax, %r14
	leaq	16(%rbx), %rdi
	callq	_ZN4core3ptr18real_drop_in_place17h0805755c54a7a761E
	addq	$24, %rbx
	movq	%rbx, %rdi
	callq	_ZN4core3ptr18real_drop_in_place17hc55e0a9d2dbc8282E
	movq	%r14, %rdi
	callq	_Unwind_Resume
.Lfunc_end99:
	.size	_ZN4core3ptr18real_drop_in_place17he00dcfa818232a3eE, .Lfunc_end99-_ZN4core3ptr18real_drop_in_place17he00dcfa818232a3eE
	.cfi_endproc
	.section	.gcc_except_table,"a",@progbits
	.p2align	2
GCC_except_table99:
.Lexception32:
	.byte	255                     # @LPStart Encoding = omit
	.byte	255                     # @TType Encoding = omit
	.byte	1                       # Call site Encoding = uleb128
	.uleb128 .Lcst_end32-.Lcst_begin32
.Lcst_begin32:
	.uleb128 .Ltmp293-.Lfunc_begin32 # >> Call Site 1 <<
	.uleb128 .Ltmp296-.Ltmp293      #   Call between .Ltmp293 and .Ltmp296
	.uleb128 .Ltmp297-.Lfunc_begin32 #     jumps to .Ltmp297
	.byte	0                       #   On action: cleanup
	.uleb128 .Ltmp296-.Lfunc_begin32 # >> Call Site 2 <<
	.uleb128 .Lfunc_end99-.Ltmp296  #   Call between .Ltmp296 and .Lfunc_end99
	.byte	0                       #     has no landing pad
	.byte	0                       #   On action: cleanup
.Lcst_end32:
	.p2align	2
                                        # -- End function
	.text
	.p2align	4, 0x90         # -- Begin function _ZN4core3ptr18real_drop_in_place17he20b4888eb52bdffE
	.type	_ZN4core3ptr18real_drop_in_place17he20b4888eb52bdffE,@function
_ZN4core3ptr18real_drop_in_place17he20b4888eb52bdffE: # @_ZN4core3ptr18real_drop_in_place17he20b4888eb52bdffE
	.cfi_startproc
# %bb.0:                                # %start
	jmp	_ZN4core3ptr18real_drop_in_place17h81ef323e0c51fdcbE # TAILCALL
.Lfunc_end100:
	.size	_ZN4core3ptr18real_drop_in_place17he20b4888eb52bdffE, .Lfunc_end100-_ZN4core3ptr18real_drop_in_place17he20b4888eb52bdffE
	.cfi_endproc
                                        # -- End function
	.p2align	4, 0x90         # -- Begin function _ZN4core3ptr18real_drop_in_place17he566ede032eb1a60E
	.type	_ZN4core3ptr18real_drop_in_place17he566ede032eb1a60E,@function
_ZN4core3ptr18real_drop_in_place17he566ede032eb1a60E: # @_ZN4core3ptr18real_drop_in_place17he566ede032eb1a60E
	.cfi_startproc
# %bb.0:                                # %start
	pushq	%rax
	.cfi_def_cfa_offset 16
	cmpq	$0, (%rdi)
	jne	.LBB101_2
# %bb.1:                                # %"_ZN106_$LT$tokio..task..stack..TransferStack$LT$T$GT$..drain..Iter$LT$T$GT$$u20$as$u20$core..ops..drop..Drop$GT$4drop17he59faf58257e1315E.exit"
	popq	%rax
	.cfi_def_cfa_offset 8
	retq
.LBB101_2:                              # %bb3.i
	.cfi_def_cfa_offset 16
	callq	*_ZN3std7process5abort17hda23989dd14b7a85E@GOTPCREL(%rip)
.Lfunc_end101:
	.size	_ZN4core3ptr18real_drop_in_place17he566ede032eb1a60E, .Lfunc_end101-_ZN4core3ptr18real_drop_in_place17he566ede032eb1a60E
	.cfi_endproc
                                        # -- End function
	.p2align	4, 0x90         # -- Begin function _ZN4core3ptr18real_drop_in_place17hec17986a815092ecE
	.type	_ZN4core3ptr18real_drop_in_place17hec17986a815092ecE,@function
_ZN4core3ptr18real_drop_in_place17hec17986a815092ecE: # @_ZN4core3ptr18real_drop_in_place17hec17986a815092ecE
.Lfunc_begin33:
	.cfi_startproc
	.cfi_personality 3, rust_eh_personality
	.cfi_lsda 3, .Lexception33
# %bb.0:                                # %start
	pushq	%r14
	.cfi_def_cfa_offset 16
	pushq	%rbx
	.cfi_def_cfa_offset 24
	pushq	%rax
	.cfi_def_cfa_offset 32
	.cfi_offset %rbx, -24
	.cfi_offset %r14, -16
	movq	%rdi, %rbx
	addq	$8, %rdi
.Ltmp298:
	callq	*_ZN86_$LT$tokio..io..driver..scheduled_io..ScheduledIo$u20$as$u20$core..ops..drop..Drop$GT$4drop17h0f6da5c3897a82caE@GOTPCREL(%rip)
.Ltmp299:
# %bb.1:                                # %bb6.i
	movq	32(%rbx), %rax
	testq	%rax, %rax
	je	.LBB102_2
# %bb.4:                                # %bb2.i.i.i.i10.i
	movq	24(%rbx), %rdi
.Ltmp301:
	callq	*24(%rax)
.Ltmp302:
.LBB102_2:                              # %bb5.i
	movq	56(%rbx), %rax
	testq	%rax, %rax
	je	.LBB102_8
# %bb.3:                                # %bb2.i.i.i.i.i
	movq	48(%rbx), %rdi
	addq	$8, %rsp
	.cfi_def_cfa_offset 24
	popq	%rbx
	.cfi_def_cfa_offset 16
	popq	%r14
	.cfi_def_cfa_offset 8
	jmpq	*24(%rax)               # TAILCALL
.LBB102_8:                              # %_ZN4core3ptr18real_drop_in_place17h6b371b15e0ffe1c1E.exit
	.cfi_def_cfa_offset 32
	addq	$8, %rsp
	.cfi_def_cfa_offset 24
	popq	%rbx
	.cfi_def_cfa_offset 16
	popq	%r14
	.cfi_def_cfa_offset 8
	retq
.LBB102_7:                              # %cleanup1.i
	.cfi_def_cfa_offset 32
.Ltmp303:
	movq	%rax, %r14
	jmp	.LBB102_6
.LBB102_5:                              # %cleanup.i
.Ltmp300:
	movq	%rax, %r14
	leaq	16(%rbx), %rdi
	callq	_ZN4core3ptr18real_drop_in_place17h4b8193e59cd485a1E
.LBB102_6:                              # %bb3.i
	addq	$40, %rbx
	movq	%rbx, %rdi
	callq	_ZN4core3ptr18real_drop_in_place17h4b8193e59cd485a1E
	movq	%r14, %rdi
	callq	_Unwind_Resume
.Lfunc_end102:
	.size	_ZN4core3ptr18real_drop_in_place17hec17986a815092ecE, .Lfunc_end102-_ZN4core3ptr18real_drop_in_place17hec17986a815092ecE
	.cfi_endproc
	.section	.gcc_except_table,"a",@progbits
	.p2align	2
GCC_except_table102:
.Lexception33:
	.byte	255                     # @LPStart Encoding = omit
	.byte	255                     # @TType Encoding = omit
	.byte	1                       # Call site Encoding = uleb128
	.uleb128 .Lcst_end33-.Lcst_begin33
.Lcst_begin33:
	.uleb128 .Ltmp298-.Lfunc_begin33 # >> Call Site 1 <<
	.uleb128 .Ltmp299-.Ltmp298      #   Call between .Ltmp298 and .Ltmp299
	.uleb128 .Ltmp300-.Lfunc_begin33 #     jumps to .Ltmp300
	.byte	0                       #   On action: cleanup
	.uleb128 .Ltmp301-.Lfunc_begin33 # >> Call Site 2 <<
	.uleb128 .Ltmp302-.Ltmp301      #   Call between .Ltmp301 and .Ltmp302
	.uleb128 .Ltmp303-.Lfunc_begin33 #     jumps to .Ltmp303
	.byte	0                       #   On action: cleanup
	.uleb128 .Ltmp302-.Lfunc_begin33 # >> Call Site 3 <<
	.uleb128 .Lfunc_end102-.Ltmp302 #   Call between .Ltmp302 and .Lfunc_end102
	.byte	0                       #     has no landing pad
	.byte	0                       #   On action: cleanup
.Lcst_end33:
	.p2align	2
                                        # -- End function
	.text
	.p2align	4, 0x90         # -- Begin function _ZN4core3ptr18real_drop_in_place17hf03004b4cf0d299fE
	.type	_ZN4core3ptr18real_drop_in_place17hf03004b4cf0d299fE,@function
_ZN4core3ptr18real_drop_in_place17hf03004b4cf0d299fE: # @_ZN4core3ptr18real_drop_in_place17hf03004b4cf0d299fE
.Lfunc_begin34:
	.cfi_startproc
	.cfi_personality 3, rust_eh_personality
	.cfi_lsda 3, .Lexception34
# %bb.0:                                # %start
	pushq	%r15
	.cfi_def_cfa_offset 16
	pushq	%r14
	.cfi_def_cfa_offset 24
	pushq	%r12
	.cfi_def_cfa_offset 32
	pushq	%rbx
	.cfi_def_cfa_offset 40
	pushq	%rax
	.cfi_def_cfa_offset 48
	.cfi_offset %rbx, -40
	.cfi_offset %r12, -32
	.cfi_offset %r14, -24
	.cfi_offset %r15, -16
	movq	8(%rdi), %rax
	testq	%rax, %rax
	je	.LBB103_11
# %bb.1:                                # %bb10.preheader.i
	movq	%rdi, %r14
	movq	(%rdi), %rbx
	leaq	(%rax,%rax,2), %rax
	leaq	-24(,%rax,8), %r12
	jmp	.LBB103_2
	.p2align	4, 0x90
.LBB103_4:                              # %_ZN4core3ptr18real_drop_in_place17h1e17b893d760546dE.exit.i
                                        #   in Loop: Header=BB103_2 Depth=1
	addq	$24, %rbx
	addq	$-24, %r12
	cmpq	$-24, %r12
	je	.LBB103_5
.LBB103_2:                              # %bb10.i
                                        # =>This Inner Loop Header: Depth=1
	movq	(%rbx), %rax
	lock		subq	$1, (%rax)
	jne	.LBB103_4
# %bb.3:                                # %bb3.i.i.i.i.i
                                        #   in Loop: Header=BB103_2 Depth=1
	#MEMBARRIER
.Ltmp304:
	movq	%rbx, %rdi
	callq	_ZN5alloc4sync12Arc$LT$T$GT$9drop_slow17h0a7fbfec7b3b8de4E
.Ltmp305:
	jmp	.LBB103_4
.LBB103_5:                              # %bb3
	movq	8(%r14), %rax
	shlq	$3, %rax
	leaq	(%rax,%rax,2), %rsi
	testq	%rsi, %rsi
	je	.LBB103_11
# %bb.6:                                # %bb4.i
	movq	(%r14), %rdi
	movl	$8, %edx
	addq	$8, %rsp
	.cfi_def_cfa_offset 40
	popq	%rbx
	.cfi_def_cfa_offset 32
	popq	%r12
	.cfi_def_cfa_offset 24
	popq	%r14
	.cfi_def_cfa_offset 16
	popq	%r15
	.cfi_def_cfa_offset 8
	jmpq	*__rust_dealloc@GOTPCREL(%rip) # TAILCALL
.LBB103_11:                             # %_ZN5alloc5alloc8box_free17hc2af688206b9dacdE.exit
	.cfi_def_cfa_offset 48
	addq	$8, %rsp
	.cfi_def_cfa_offset 40
	popq	%rbx
	.cfi_def_cfa_offset 32
	popq	%r12
	.cfi_def_cfa_offset 24
	popq	%r14
	.cfi_def_cfa_offset 16
	popq	%r15
	.cfi_def_cfa_offset 8
	retq
.LBB103_9:                              # %cleanup.i
	.cfi_def_cfa_offset 48
.Ltmp306:
	movq	%rax, %r15
	testq	%r12, %r12
	je	.LBB103_13
# %bb.10:
	addq	$24, %rbx
.LBB103_7:                              # %bb8.i
                                        # =>This Inner Loop Header: Depth=1
.Ltmp307:
	movq	%rbx, %rdi
	callq	_ZN4core3ptr18real_drop_in_place17h1e17b893d760546dE
.Ltmp308:
# %bb.8:                                # %.noexc
                                        #   in Loop: Header=BB103_7 Depth=1
	addq	$24, %rbx
	addq	$-24, %r12
	jne	.LBB103_7
.LBB103_13:                             # %cleanup.body
	movq	(%r14), %rdi
	movq	8(%r14), %rsi
	callq	_ZN5alloc5alloc8box_free17hc2af688206b9dacdE
	movq	%r15, %rdi
	callq	_Unwind_Resume
.LBB103_12:                             # %cleanup
.Ltmp309:
	movq	%rax, %r15
	jmp	.LBB103_13
.Lfunc_end103:
	.size	_ZN4core3ptr18real_drop_in_place17hf03004b4cf0d299fE, .Lfunc_end103-_ZN4core3ptr18real_drop_in_place17hf03004b4cf0d299fE
	.cfi_endproc
	.section	.gcc_except_table,"a",@progbits
	.p2align	2
GCC_except_table103:
.Lexception34:
	.byte	255                     # @LPStart Encoding = omit
	.byte	255                     # @TType Encoding = omit
	.byte	1                       # Call site Encoding = uleb128
	.uleb128 .Lcst_end34-.Lcst_begin34
.Lcst_begin34:
	.uleb128 .Ltmp304-.Lfunc_begin34 # >> Call Site 1 <<
	.uleb128 .Ltmp305-.Ltmp304      #   Call between .Ltmp304 and .Ltmp305
	.uleb128 .Ltmp306-.Lfunc_begin34 #     jumps to .Ltmp306
	.byte	0                       #   On action: cleanup
	.uleb128 .Ltmp307-.Lfunc_begin34 # >> Call Site 2 <<
	.uleb128 .Ltmp308-.Ltmp307      #   Call between .Ltmp307 and .Ltmp308
	.uleb128 .Ltmp309-.Lfunc_begin34 #     jumps to .Ltmp309
	.byte	0                       #   On action: cleanup
	.uleb128 .Ltmp308-.Lfunc_begin34 # >> Call Site 3 <<
	.uleb128 .Lfunc_end103-.Ltmp308 #   Call between .Ltmp308 and .Lfunc_end103
	.byte	0                       #     has no landing pad
	.byte	0                       #   On action: cleanup
.Lcst_end34:
	.p2align	2
                                        # -- End function
	.text
	.p2align	4, 0x90         # -- Begin function _ZN4core3ptr18real_drop_in_place17hf06429378fe5ad37E
	.type	_ZN4core3ptr18real_drop_in_place17hf06429378fe5ad37E,@function
_ZN4core3ptr18real_drop_in_place17hf06429378fe5ad37E: # @_ZN4core3ptr18real_drop_in_place17hf06429378fe5ad37E
.Lfunc_begin35:
	.cfi_startproc
	.cfi_personality 3, rust_eh_personality
	.cfi_lsda 3, .Lexception35
# %bb.0:                                # %start
	pushq	%r15
	.cfi_def_cfa_offset 16
	pushq	%r14
	.cfi_def_cfa_offset 24
	pushq	%r12
	.cfi_def_cfa_offset 32
	pushq	%rbx
	.cfi_def_cfa_offset 40
	pushq	%rax
	.cfi_def_cfa_offset 48
	.cfi_offset %rbx, -40
	.cfi_offset %r12, -32
	.cfi_offset %r14, -24
	.cfi_offset %r15, -16
	movq	%rdi, %r14
	movq	8(%rdi), %rsi
	shlq	$3, %rsi
	testq	%rsi, %rsi
	je	.LBB104_2
# %bb.1:                                # %bb4.i.i.i
	movq	(%r14), %rdi
	movl	$8, %edx
	callq	*__rust_dealloc@GOTPCREL(%rip)
.LBB104_2:                              # %bb4.i
	movq	16(%r14), %r12
	movq	24(%r14), %rax
	shlq	$3, %rax
	leaq	(%rax,%rax,4), %rbx
	.p2align	4, 0x90
.LBB104_7:                              # %bb11.i.i.i
                                        # =>This Inner Loop Header: Depth=1
	testq	%rbx, %rbx
	je	.LBB104_8
# %bb.6:                                # %bb10.i.i.i
                                        #   in Loop: Header=BB104_7 Depth=1
	addq	$-40, %rbx
.Ltmp310:
	movq	%r12, %rdi
	addq	$40, %r12
	callq	_ZN4core3ptr18real_drop_in_place17h7fdbf070a286670aE
.Ltmp311:
	jmp	.LBB104_7
.LBB104_8:                              # %bb3.i.i
	movq	24(%r14), %rax
	shlq	$3, %rax
	leaq	(%rax,%rax,4), %rsi
	testq	%rsi, %rsi
	je	.LBB104_10
# %bb.9:                                # %bb4.i.i5.i
	movq	16(%r14), %rdi
	movl	$8, %edx
	callq	*__rust_dealloc@GOTPCREL(%rip)
.LBB104_10:                             # %bb4
	movq	32(%r14), %rdi
	callq	*pthread_mutex_destroy@GOTPCREL(%rip)
	movq	32(%r14), %rdi
	movl	$40, %esi
	movl	$8, %edx
	addq	$8, %rsp
	.cfi_def_cfa_offset 40
	popq	%rbx
	.cfi_def_cfa_offset 32
	popq	%r12
	.cfi_def_cfa_offset 24
	popq	%r14
	.cfi_def_cfa_offset 16
	popq	%r15
	.cfi_def_cfa_offset 8
	jmpq	*__rust_dealloc@GOTPCREL(%rip) # TAILCALL
.LBB104_3:                              # %cleanup.i.i.i
	.cfi_def_cfa_offset 48
.Ltmp312:
	movq	%rax, %r15
	testq	%rbx, %rbx
	je	.LBB104_12
.LBB104_4:                              # %bb8.i.i.i
                                        # =>This Inner Loop Header: Depth=1
.Ltmp313:
	movq	%r12, %rdi
	callq	_ZN4core3ptr18real_drop_in_place17h7fdbf070a286670aE
.Ltmp314:
# %bb.5:                                # %.noexc.i.i
                                        #   in Loop: Header=BB104_4 Depth=1
	addq	$40, %r12
	addq	$-40, %rbx
	jne	.LBB104_4
.LBB104_12:                             # %cleanup.body.i.i
	movq	16(%r14), %rdi
	movq	24(%r14), %rsi
	callq	_ZN5alloc5alloc8box_free17hcfad119380109afaE
	addq	$32, %r14
	movq	%r14, %rdi
	callq	_ZN4core3ptr18real_drop_in_place17h34e8b2af0c545c8bE
	movq	%r15, %rdi
	callq	_Unwind_Resume
.LBB104_11:                             # %cleanup.i.i
.Ltmp315:
	movq	%rax, %r15
	jmp	.LBB104_12
.Lfunc_end104:
	.size	_ZN4core3ptr18real_drop_in_place17hf06429378fe5ad37E, .Lfunc_end104-_ZN4core3ptr18real_drop_in_place17hf06429378fe5ad37E
	.cfi_endproc
	.section	.gcc_except_table,"a",@progbits
	.p2align	2
GCC_except_table104:
.Lexception35:
	.byte	255                     # @LPStart Encoding = omit
	.byte	255                     # @TType Encoding = omit
	.byte	1                       # Call site Encoding = uleb128
	.uleb128 .Lcst_end35-.Lcst_begin35
.Lcst_begin35:
	.uleb128 .Ltmp310-.Lfunc_begin35 # >> Call Site 1 <<
	.uleb128 .Ltmp311-.Ltmp310      #   Call between .Ltmp310 and .Ltmp311
	.uleb128 .Ltmp312-.Lfunc_begin35 #     jumps to .Ltmp312
	.byte	0                       #   On action: cleanup
	.uleb128 .Ltmp313-.Lfunc_begin35 # >> Call Site 2 <<
	.uleb128 .Ltmp314-.Ltmp313      #   Call between .Ltmp313 and .Ltmp314
	.uleb128 .Ltmp315-.Lfunc_begin35 #     jumps to .Ltmp315
	.byte	0                       #   On action: cleanup
	.uleb128 .Ltmp314-.Lfunc_begin35 # >> Call Site 3 <<
	.uleb128 .Lfunc_end104-.Ltmp314 #   Call between .Ltmp314 and .Lfunc_end104
	.byte	0                       #     has no landing pad
	.byte	0                       #   On action: cleanup
.Lcst_end35:
	.p2align	2
                                        # -- End function
	.text
	.p2align	4, 0x90         # -- Begin function _ZN4core3ptr18real_drop_in_place17hf72921a7bb3322d2E
	.type	_ZN4core3ptr18real_drop_in_place17hf72921a7bb3322d2E,@function
_ZN4core3ptr18real_drop_in_place17hf72921a7bb3322d2E: # @_ZN4core3ptr18real_drop_in_place17hf72921a7bb3322d2E
	.cfi_startproc
# %bb.0:                                # %start
	movq	(%rdi), %rax
	leaq	1(%rax), %rcx
	cmpq	$2, %rcx
	jb	.LBB105_2
# %bb.1:                                # %bb3.i.i
	lock		subq	$1, 8(%rax)
	jne	.LBB105_2
# %bb.3:                                # %bb6.i.i
	#MEMBARRIER
	movq	(%rdi), %rdi
	movl	$144, %esi
	movl	$8, %edx
	jmpq	*__rust_dealloc@GOTPCREL(%rip) # TAILCALL
.LBB105_2:                              # %_ZN4core3ptr18real_drop_in_place17hf622eec4bf4c77bdE.exit
	retq
.Lfunc_end105:
	.size	_ZN4core3ptr18real_drop_in_place17hf72921a7bb3322d2E, .Lfunc_end105-_ZN4core3ptr18real_drop_in_place17hf72921a7bb3322d2E
	.cfi_endproc
                                        # -- End function
	.p2align	4, 0x90         # -- Begin function _ZN4core6result19Result$LT$T$C$E$GT$6unwrap17h85e7125661f2df3bE
	.type	_ZN4core6result19Result$LT$T$C$E$GT$6unwrap17h85e7125661f2df3bE,@function
_ZN4core6result19Result$LT$T$C$E$GT$6unwrap17h85e7125661f2df3bE: # @"_ZN4core6result19Result$LT$T$C$E$GT$6unwrap17h85e7125661f2df3bE"
	.cfi_startproc
# %bb.0:                                # %start
	pushq	%rax
	.cfi_def_cfa_offset 16
	testq	%rsi, %rsi
	je	.LBB106_2
# %bb.1:                                # %bb3
	movq	%rsi, %rdx
	movq	%rdi, %rax
	popq	%rcx
	.cfi_def_cfa_offset 8
	retq
.LBB106_2:                              # %bb5
	.cfi_def_cfa_offset 16
	movq	%rsp, %rdx
	movl	$.Lanon.112aa5216417f3e30cbfa40815f3b444.9, %edi
	movl	$43, %esi
	movl	$.Lvtable.9, %ecx
	callq	*_ZN4core6result13unwrap_failed17hca6a012bfa3eb903E@GOTPCREL(%rip)
.Lfunc_end106:
	.size	_ZN4core6result19Result$LT$T$C$E$GT$6unwrap17h85e7125661f2df3bE, .Lfunc_end106-_ZN4core6result19Result$LT$T$C$E$GT$6unwrap17h85e7125661f2df3bE
	.cfi_endproc
                                        # -- End function
	.p2align	4, 0x90         # -- Begin function _ZN5alloc4sync12Arc$LT$T$GT$9drop_slow17h0a7fbfec7b3b8de4E
	.type	_ZN5alloc4sync12Arc$LT$T$GT$9drop_slow17h0a7fbfec7b3b8de4E,@function
_ZN5alloc4sync12Arc$LT$T$GT$9drop_slow17h0a7fbfec7b3b8de4E: # @"_ZN5alloc4sync12Arc$LT$T$GT$9drop_slow17h0a7fbfec7b3b8de4E"
.Lfunc_begin36:
	.cfi_startproc
	.cfi_personality 3, rust_eh_personality
	.cfi_lsda 3, .Lexception36
# %bb.0:                                # %start
	pushq	%r15
	.cfi_def_cfa_offset 16
	pushq	%r14
	.cfi_def_cfa_offset 24
	pushq	%rbx
	.cfi_def_cfa_offset 32
	.cfi_offset %rbx, -32
	.cfi_offset %r14, -24
	.cfi_offset %r15, -16
	movq	%rdi, %r14
	movq	(%rdi), %rbx
	movq	24(%rbx), %rdi
	callq	*pthread_mutex_destroy@GOTPCREL(%rip)
	movq	24(%rbx), %rdi
	movl	$40, %esi
	movl	$8, %edx
	callq	*__rust_dealloc@GOTPCREL(%rip)
	leaq	40(%rbx), %r15
.Ltmp316:
	movq	%r15, %rdi
	callq	*_ZN69_$LT$std..sync..condvar..Condvar$u20$as$u20$core..ops..drop..Drop$GT$4drop17h4eee38946b40573cE@GOTPCREL(%rip)
.Ltmp317:
# %bb.1:                                # %bb5.i.i
	movq	40(%rbx), %rdi
	movl	$48, %esi
	movl	$8, %edx
	callq	*__rust_dealloc@GOTPCREL(%rip)
	movq	56(%rbx), %rax
	lock		subq	$1, (%rax)
	jne	.LBB107_3
# %bb.2:                                # %bb3.i.i.i.i
	addq	$56, %rbx
	#MEMBARRIER
	movq	%rbx, %rdi
	callq	_ZN5alloc4sync12Arc$LT$T$GT$9drop_slow17h9da3ed3bbf13a0f5E
.LBB107_3:                              # %_ZN4core3ptr13drop_in_place17h61e7a69d715aee9dE.exit
	movq	(%r14), %rax
	lock		subq	$1, 8(%rax)
	jne	.LBB107_4
# %bb.6:                                # %bb5
	#MEMBARRIER
	movq	(%r14), %rdi
	movl	$64, %esi
	movl	$8, %edx
	popq	%rbx
	.cfi_def_cfa_offset 24
	popq	%r14
	.cfi_def_cfa_offset 16
	popq	%r15
	.cfi_def_cfa_offset 8
	jmpq	*__rust_dealloc@GOTPCREL(%rip) # TAILCALL
.LBB107_4:                              # %bb11
	.cfi_def_cfa_offset 32
	popq	%rbx
	.cfi_def_cfa_offset 24
	popq	%r14
	.cfi_def_cfa_offset 16
	popq	%r15
	.cfi_def_cfa_offset 8
	retq
.LBB107_5:                              # %cleanup.i.i.i
	.cfi_def_cfa_offset 32
.Ltmp318:
	movq	%rax, %r14
	movq	%r15, %rdi
	callq	_ZN4core3ptr18real_drop_in_place17ha6fa1980cd7ce6c6E
	addq	$56, %rbx
	movq	%rbx, %rdi
	callq	_ZN4core3ptr18real_drop_in_place17h6a1b919391b771b5E
	movq	%r14, %rdi
	callq	_Unwind_Resume
.Lfunc_end107:
	.size	_ZN5alloc4sync12Arc$LT$T$GT$9drop_slow17h0a7fbfec7b3b8de4E, .Lfunc_end107-_ZN5alloc4sync12Arc$LT$T$GT$9drop_slow17h0a7fbfec7b3b8de4E
	.cfi_endproc
	.section	.gcc_except_table,"a",@progbits
	.p2align	2
GCC_except_table107:
.Lexception36:
	.byte	255                     # @LPStart Encoding = omit
	.byte	255                     # @TType Encoding = omit
	.byte	1                       # Call site Encoding = uleb128
	.uleb128 .Lcst_end36-.Lcst_begin36
.Lcst_begin36:
	.uleb128 .Ltmp316-.Lfunc_begin36 # >> Call Site 1 <<
	.uleb128 .Ltmp317-.Ltmp316      #   Call between .Ltmp316 and .Ltmp317
	.uleb128 .Ltmp318-.Lfunc_begin36 #     jumps to .Ltmp318
	.byte	0                       #   On action: cleanup
	.uleb128 .Ltmp317-.Lfunc_begin36 # >> Call Site 2 <<
	.uleb128 .Lfunc_end107-.Ltmp317 #   Call between .Ltmp317 and .Lfunc_end107
	.byte	0                       #     has no landing pad
	.byte	0                       #   On action: cleanup
.Lcst_end36:
	.p2align	2
                                        # -- End function
	.text
	.p2align	4, 0x90         # -- Begin function _ZN5alloc4sync12Arc$LT$T$GT$9drop_slow17h0b7738850a39f860E
	.type	_ZN5alloc4sync12Arc$LT$T$GT$9drop_slow17h0b7738850a39f860E,@function
_ZN5alloc4sync12Arc$LT$T$GT$9drop_slow17h0b7738850a39f860E: # @"_ZN5alloc4sync12Arc$LT$T$GT$9drop_slow17h0b7738850a39f860E"
.Lfunc_begin37:
	.cfi_startproc
	.cfi_personality 3, rust_eh_personality
	.cfi_lsda 3, .Lexception37
# %bb.0:                                # %start
	pushq	%rbp
	.cfi_def_cfa_offset 16
	pushq	%r15
	.cfi_def_cfa_offset 24
	pushq	%r14
	.cfi_def_cfa_offset 32
	pushq	%r13
	.cfi_def_cfa_offset 40
	pushq	%r12
	.cfi_def_cfa_offset 48
	pushq	%rbx
	.cfi_def_cfa_offset 56
	subq	$24, %rsp
	.cfi_def_cfa_offset 80
	.cfi_offset %rbx, -56
	.cfi_offset %r12, -48
	.cfi_offset %r13, -40
	.cfi_offset %r14, -32
	.cfi_offset %r15, -24
	.cfi_offset %rbp, -16
	movq	%rdi, (%rsp)            # 8-byte Spill
	movq	(%rdi), %r15
	movq	16(%r15), %rdi
	callq	*pthread_mutex_destroy@GOTPCREL(%rip)
	movq	16(%r15), %rdi
	movl	$40, %esi
	movl	$8, %edx
	callq	*__rust_dealloc@GOTPCREL(%rip)
	movq	32(%r15), %rbp
	movq	40(%r15), %rdi
	movq	48(%r15), %rbx
	movq	56(%r15), %r12
	cmpq	%rbp, %rdi
	jae	.LBB108_4
# %bb.1:                                # %bb2.i.i.i.i.i.i.i.i
	movq	%rdi, %r13
	cmpq	%rbp, %r12
	jae	.LBB108_6
# %bb.2:                                # %bb4.i.i.i.i.i.i.i.i.i.i
.Ltmp343:
	movl	$.Lanon.112aa5216417f3e30cbfa40815f3b444.7, %edi
	movl	$28, %esi
	movl	$.Lanon.112aa5216417f3e30cbfa40815f3b444.6, %edx
	callq	*_ZN4core9panicking5panic17hf3b2e3f8bf85ebd1E@GOTPCREL(%rip)
.Ltmp344:
# %bb.3:                                # %.noexc.i.i.i.i.i
.LBB108_4:                              # %bb1.i.i.i.i.i.i.i.i.i.i.i
	cmpq	%rdi, %r12
	jb	.LBB108_7
# %bb.5:
	xorl	%r13d, %r13d
	movq	%rdi, %r12
.LBB108_6:                              # %"_ZN5alloc11collections9vec_deque17VecDeque$LT$T$GT$13as_mut_slices17h735216223c3ac28eE.exit.i.i.i.i.i.i"
	movq	%rbx, 8(%rsp)
	movq	%r13, 16(%rsp)
	shlq	$3, %rbp
	shlq	$3, %r12
	movq	_ZN5tokio4task3raw7RawTask9drop_task17h698abef7adc201bbE@GOTPCREL(%rip), %r14
	.p2align	4, 0x90
.LBB108_13:                             # %bb11.i.i6.i.i.i.i.i.i
                                        # =>This Inner Loop Header: Depth=1
	cmpq	%rbp, %r12
	je	.LBB108_14
# %bb.12:                               # %bb10.i.i.i.i.i.i.i.i
                                        #   in Loop: Header=BB108_13 Depth=1
	movq	(%rbx,%rbp), %rdi
	addq	$8, %rbp
.Ltmp321:
	callq	*%r14
.Ltmp322:
	jmp	.LBB108_13
.LBB108_14:                             # %bb3.i.i.i.i.i.i
	shlq	$3, %r13
	xorl	%ebp, %ebp
	.p2align	4, 0x90
.LBB108_20:                             # %bb11.i.i.i.i.i.i.i.i.i.i
                                        # =>This Inner Loop Header: Depth=1
	cmpq	%rbp, %r13
	je	.LBB108_21
# %bb.19:                               # %bb10.i.i.i.i.i.i.i.i.i.i
                                        #   in Loop: Header=BB108_20 Depth=1
	movq	(%rbx,%rbp), %rdi
	addq	$8, %rbp
.Ltmp329:
	callq	*%r14
.Ltmp330:
	jmp	.LBB108_20
.LBB108_21:                             # %bb4.i.i.i.i.i
	movq	56(%r15), %rsi
	testq	%rsi, %rsi
	je	.LBB108_23
# %bb.22:                               # %bb4.i.i.i.i.i.i.i.i
	movq	48(%r15), %rdi
	shlq	$3, %rsi
	movl	$8, %edx
	callq	*__rust_dealloc@GOTPCREL(%rip)
.LBB108_23:                             # %bb4.i.i.i.i
	movq	72(%r15), %rax
	testq	%rax, %rax
	je	.LBB108_26
# %bb.24:                               # %bb2.i.i.i.i.i
	lock		subq	$1, (%rax)
	jne	.LBB108_26
# %bb.25:                               # %bb3.i.i.i.i.i.i.i.i
	leaq	72(%r15), %rdi
	#MEMBARRIER
.Ltmp335:
	callq	_ZN5alloc4sync12Arc$LT$T$GT$9drop_slow17he590ba7b80be8f2aE
.Ltmp336:
.LBB108_26:                             # %bb10.i.i
	leaq	96(%r15), %rbx
.Ltmp337:
	movq	%rbx, %rdi
	callq	*_ZN69_$LT$std..sync..condvar..Condvar$u20$as$u20$core..ops..drop..Drop$GT$4drop17h4eee38946b40573cE@GOTPCREL(%rip)
.Ltmp338:
# %bb.27:                               # %bb9.i.i
	movq	96(%r15), %rdi
	movl	$48, %esi
	movl	$8, %edx
	callq	*__rust_dealloc@GOTPCREL(%rip)
	movq	120(%r15), %rsi
	testq	%rsi, %rsi
	je	.LBB108_29
# %bb.28:                               # %bb4.i.i.i.i.i.i.i
	movq	112(%r15), %rdi
	movl	$1, %edx
	callq	*__rust_dealloc@GOTPCREL(%rip)
.LBB108_29:                             # %bb8.i.i
	movq	152(%r15), %rax
	testq	%rax, %rax
	je	.LBB108_32
# %bb.30:                               # %bb2.i19.i.i
	lock		subq	$1, (%rax)
	jne	.LBB108_32
# %bb.31:                               # %bb3.i.i.i20.i.i
	leaq	152(%r15), %rdi
	#MEMBARRIER
.Ltmp340:
	callq	_ZN5alloc4sync12Arc$LT$T$GT$9drop_slow17hce72188c7ef7cdffE
.Ltmp341:
.LBB108_32:                             # %bb7.i.i
	movq	168(%r15), %rax
	testq	%rax, %rax
	je	.LBB108_35
# %bb.33:                               # %bb2.i.i.i
	lock		subq	$1, (%rax)
	jne	.LBB108_35
# %bb.34:                               # %bb3.i.i.i.i.i
	addq	$168, %r15
	#MEMBARRIER
	movq	%r15, %rdi
	callq	_ZN5alloc4sync12Arc$LT$T$GT$9drop_slow17hce72188c7ef7cdffE
.LBB108_35:                             # %_ZN4core3ptr13drop_in_place17h273fd82c967e3b2fE.exit
	movq	(%rsp), %rcx            # 8-byte Reload
	movq	(%rcx), %rax
	lock		subq	$1, 8(%rax)
	jne	.LBB108_50
# %bb.36:                               # %bb5
	#MEMBARRIER
	movq	(%rcx), %rdi
	movl	$192, %esi
	movl	$8, %edx
	addq	$24, %rsp
	.cfi_def_cfa_offset 56
	popq	%rbx
	.cfi_def_cfa_offset 48
	popq	%r12
	.cfi_def_cfa_offset 40
	popq	%r13
	.cfi_def_cfa_offset 32
	popq	%r14
	.cfi_def_cfa_offset 24
	popq	%r15
	.cfi_def_cfa_offset 16
	popq	%rbp
	.cfi_def_cfa_offset 8
	jmpq	*__rust_dealloc@GOTPCREL(%rip) # TAILCALL
.LBB108_50:                             # %bb11
	.cfi_def_cfa_offset 80
	addq	$24, %rsp
	.cfi_def_cfa_offset 56
	popq	%rbx
	.cfi_def_cfa_offset 48
	popq	%r12
	.cfi_def_cfa_offset 40
	popq	%r13
	.cfi_def_cfa_offset 32
	popq	%r14
	.cfi_def_cfa_offset 24
	popq	%r15
	.cfi_def_cfa_offset 16
	popq	%rbp
	.cfi_def_cfa_offset 8
	retq
.LBB108_7:                              # %bb5.i.i.i.i.i.i.i.i.i.i.i
	.cfi_def_cfa_offset 80
.Ltmp319:
	movq	%r12, %rsi
	callq	*_ZN4core5slice20slice_index_len_fail17ha58ce2526532f1e6E@GOTPCREL(%rip)
.Ltmp320:
# %bb.8:                                # %.noexc7.i.i.i.i.i
.LBB108_48:                             # %cleanup3.i.i
.Ltmp342:
	movq	%rax, %r14
	jmp	.LBB108_49
.LBB108_44:                             # %cleanup.i.i.i
.Ltmp339:
	movq	%rax, %r14
	movq	%rbx, %rdi
	callq	_ZN4core3ptr18real_drop_in_place17ha6fa1980cd7ce6c6E
	jmp	.LBB108_45
.LBB108_37:                             # %cleanup.i.i.i.i.i.i.i.i.i.i
.Ltmp331:
	movq	%rax, %r14
.LBB108_18:                             # %.noexc8.i.i.i.i.i
                                        # =>This Inner Loop Header: Depth=1
	cmpq	%rbp, %r13
	je	.LBB108_43
# %bb.16:                               # %bb8.i.i.i.i.i.i.i.i.i.i
                                        #   in Loop: Header=BB108_18 Depth=1
	movq	(%rbx,%rbp), %rdi
.Ltmp332:
	callq	_ZN4core3ptr18real_drop_in_place17h032bb3b7232478c2E
.Ltmp333:
# %bb.17:                               # %.noexc8.i.i.i.i.i
                                        #   in Loop: Header=BB108_18 Depth=1
	addq	$8, %rbp
	jmp	.LBB108_18
.LBB108_40:                             # %cleanup.loopexit.i.i.i.i.i
.Ltmp334:
	jmp	.LBB108_42
.LBB108_15:                             # %cleanup.i.i.i.i.i.i.i.i
.Ltmp323:
	movq	%rax, %r14
.LBB108_11:                             # %.noexc.i.i.i.i.i.i
                                        # =>This Inner Loop Header: Depth=1
	cmpq	%rbp, %r12
	je	.LBB108_39
# %bb.9:                                # %bb8.i.i.i.i.i.i.i.i
                                        #   in Loop: Header=BB108_11 Depth=1
	movq	(%rbx,%rbp), %rdi
.Ltmp324:
	callq	_ZN4core3ptr18real_drop_in_place17h032bb3b7232478c2E
.Ltmp325:
# %bb.10:                               # %.noexc.i.i.i.i.i.i
                                        #   in Loop: Header=BB108_11 Depth=1
	addq	$8, %rbp
	jmp	.LBB108_11
.LBB108_38:                             # %cleanup.i.i.i.i.i.i
.Ltmp326:
	movq	%rax, %r14
.LBB108_39:                             # %cleanup.body.i.i.i.i.i.i
.Ltmp327:
	leaq	8(%rsp), %rdi
	callq	_ZN4core3ptr18real_drop_in_place17h0c5e93ad2f336c64E
.Ltmp328:
.LBB108_43:                             # %cleanup.body.i.i.i.i.i
	movq	48(%r15), %rdi
	movq	56(%r15), %rsi
	callq	_ZN4core3ptr18real_drop_in_place17h90d8552239534afaE
	leaq	72(%r15), %rdi
.Ltmp346:
	callq	_ZN4core3ptr18real_drop_in_place17h34cd177c93b7022dE
.Ltmp347:
.LBB108_47:                             # %cleanup.body.i.i
	leaq	96(%r15), %rdi
	callq	_ZN4core3ptr18real_drop_in_place17h57c7b716786d5f27E
.LBB108_45:                             # %bb4.i.i
	leaq	112(%r15), %rdi
	callq	_ZN4core3ptr18real_drop_in_place17h314366b4417d5734E
	leaq	152(%r15), %rdi
	callq	_ZN4core3ptr18real_drop_in_place17h6bec50ca570047d9E
.LBB108_49:                             # %bb3.i.i
	addq	$168, %r15
	movq	%r15, %rdi
	callq	_ZN4core3ptr18real_drop_in_place17h6bec50ca570047d9E
	movq	%r14, %rdi
	callq	_Unwind_Resume
.LBB108_41:                             # %cleanup.loopexit.split-lp.i.i.i.i.i
.Ltmp345:
.LBB108_42:                             # %cleanup.body.i.i.i.i.i
	movq	%rax, %r14
	jmp	.LBB108_43
.LBB108_46:                             # %cleanup.i.i
.Ltmp348:
	movq	%rax, %r14
	jmp	.LBB108_47
.Lfunc_end108:
	.size	_ZN5alloc4sync12Arc$LT$T$GT$9drop_slow17h0b7738850a39f860E, .Lfunc_end108-_ZN5alloc4sync12Arc$LT$T$GT$9drop_slow17h0b7738850a39f860E
	.cfi_endproc
	.section	.gcc_except_table,"a",@progbits
	.p2align	2
GCC_except_table108:
.Lexception37:
	.byte	255                     # @LPStart Encoding = omit
	.byte	255                     # @TType Encoding = omit
	.byte	1                       # Call site Encoding = uleb128
	.uleb128 .Lcst_end37-.Lcst_begin37
.Lcst_begin37:
	.uleb128 .Ltmp343-.Lfunc_begin37 # >> Call Site 1 <<
	.uleb128 .Ltmp344-.Ltmp343      #   Call between .Ltmp343 and .Ltmp344
	.uleb128 .Ltmp345-.Lfunc_begin37 #     jumps to .Ltmp345
	.byte	0                       #   On action: cleanup
	.uleb128 .Ltmp321-.Lfunc_begin37 # >> Call Site 2 <<
	.uleb128 .Ltmp322-.Ltmp321      #   Call between .Ltmp321 and .Ltmp322
	.uleb128 .Ltmp323-.Lfunc_begin37 #     jumps to .Ltmp323
	.byte	0                       #   On action: cleanup
	.uleb128 .Ltmp329-.Lfunc_begin37 # >> Call Site 3 <<
	.uleb128 .Ltmp330-.Ltmp329      #   Call between .Ltmp329 and .Ltmp330
	.uleb128 .Ltmp331-.Lfunc_begin37 #     jumps to .Ltmp331
	.byte	0                       #   On action: cleanup
	.uleb128 .Ltmp335-.Lfunc_begin37 # >> Call Site 4 <<
	.uleb128 .Ltmp336-.Ltmp335      #   Call between .Ltmp335 and .Ltmp336
	.uleb128 .Ltmp348-.Lfunc_begin37 #     jumps to .Ltmp348
	.byte	0                       #   On action: cleanup
	.uleb128 .Ltmp337-.Lfunc_begin37 # >> Call Site 5 <<
	.uleb128 .Ltmp338-.Ltmp337      #   Call between .Ltmp337 and .Ltmp338
	.uleb128 .Ltmp339-.Lfunc_begin37 #     jumps to .Ltmp339
	.byte	0                       #   On action: cleanup
	.uleb128 .Ltmp340-.Lfunc_begin37 # >> Call Site 6 <<
	.uleb128 .Ltmp341-.Ltmp340      #   Call between .Ltmp340 and .Ltmp341
	.uleb128 .Ltmp342-.Lfunc_begin37 #     jumps to .Ltmp342
	.byte	0                       #   On action: cleanup
	.uleb128 .Ltmp341-.Lfunc_begin37 # >> Call Site 7 <<
	.uleb128 .Ltmp319-.Ltmp341      #   Call between .Ltmp341 and .Ltmp319
	.byte	0                       #     has no landing pad
	.byte	0                       #   On action: cleanup
	.uleb128 .Ltmp319-.Lfunc_begin37 # >> Call Site 8 <<
	.uleb128 .Ltmp320-.Ltmp319      #   Call between .Ltmp319 and .Ltmp320
	.uleb128 .Ltmp345-.Lfunc_begin37 #     jumps to .Ltmp345
	.byte	0                       #   On action: cleanup
	.uleb128 .Ltmp332-.Lfunc_begin37 # >> Call Site 9 <<
	.uleb128 .Ltmp333-.Ltmp332      #   Call between .Ltmp332 and .Ltmp333
	.uleb128 .Ltmp334-.Lfunc_begin37 #     jumps to .Ltmp334
	.byte	0                       #   On action: cleanup
	.uleb128 .Ltmp324-.Lfunc_begin37 # >> Call Site 10 <<
	.uleb128 .Ltmp325-.Ltmp324      #   Call between .Ltmp324 and .Ltmp325
	.uleb128 .Ltmp326-.Lfunc_begin37 #     jumps to .Ltmp326
	.byte	0                       #   On action: cleanup
	.uleb128 .Ltmp327-.Lfunc_begin37 # >> Call Site 11 <<
	.uleb128 .Ltmp328-.Ltmp327      #   Call between .Ltmp327 and .Ltmp328
	.uleb128 .Ltmp345-.Lfunc_begin37 #     jumps to .Ltmp345
	.byte	0                       #   On action: cleanup
	.uleb128 .Ltmp346-.Lfunc_begin37 # >> Call Site 12 <<
	.uleb128 .Ltmp347-.Ltmp346      #   Call between .Ltmp346 and .Ltmp347
	.uleb128 .Ltmp348-.Lfunc_begin37 #     jumps to .Ltmp348
	.byte	0                       #   On action: cleanup
	.uleb128 .Ltmp347-.Lfunc_begin37 # >> Call Site 13 <<
	.uleb128 .Lfunc_end108-.Ltmp347 #   Call between .Ltmp347 and .Lfunc_end108
	.byte	0                       #     has no landing pad
	.byte	0                       #   On action: cleanup
.Lcst_end37:
	.p2align	2
                                        # -- End function
	.text
	.p2align	4, 0x90         # -- Begin function _ZN5alloc4sync12Arc$LT$T$GT$9drop_slow17h11947988d5165e69E
	.type	_ZN5alloc4sync12Arc$LT$T$GT$9drop_slow17h11947988d5165e69E,@function
_ZN5alloc4sync12Arc$LT$T$GT$9drop_slow17h11947988d5165e69E: # @"_ZN5alloc4sync12Arc$LT$T$GT$9drop_slow17h11947988d5165e69E"
.Lfunc_begin38:
	.cfi_startproc
	.cfi_personality 3, rust_eh_personality
	.cfi_lsda 3, .Lexception38
# %bb.0:                                # %start
	pushq	%r14
	.cfi_def_cfa_offset 16
	pushq	%rbx
	.cfi_def_cfa_offset 24
	pushq	%rax
	.cfi_def_cfa_offset 32
	.cfi_offset %rbx, -24
	.cfi_offset %r14, -16
	movq	%rdi, %r14
	movq	(%rdi), %rbx
	movq	24(%rbx), %rdi
	callq	*pthread_mutex_destroy@GOTPCREL(%rip)
	movq	24(%rbx), %rdi
	movl	$40, %esi
	movl	$8, %edx
	callq	*__rust_dealloc@GOTPCREL(%rip)
	addq	$40, %rbx
.Ltmp349:
	movq	%rbx, %rdi
	callq	*_ZN69_$LT$std..sync..condvar..Condvar$u20$as$u20$core..ops..drop..Drop$GT$4drop17h4eee38946b40573cE@GOTPCREL(%rip)
.Ltmp350:
# %bb.1:                                # %_ZN4core3ptr13drop_in_place17h18737bd901e0313aE.exit
	movq	(%rbx), %rdi
	movl	$48, %esi
	movl	$8, %edx
	callq	*__rust_dealloc@GOTPCREL(%rip)
	movq	(%r14), %rax
	lock		subq	$1, 8(%rax)
	jne	.LBB109_2
# %bb.4:                                # %bb5
	#MEMBARRIER
	movq	(%r14), %rdi
	movl	$56, %esi
	movl	$8, %edx
	addq	$8, %rsp
	.cfi_def_cfa_offset 24
	popq	%rbx
	.cfi_def_cfa_offset 16
	popq	%r14
	.cfi_def_cfa_offset 8
	jmpq	*__rust_dealloc@GOTPCREL(%rip) # TAILCALL
.LBB109_2:                              # %bb11
	.cfi_def_cfa_offset 32
	addq	$8, %rsp
	.cfi_def_cfa_offset 24
	popq	%rbx
	.cfi_def_cfa_offset 16
	popq	%r14
	.cfi_def_cfa_offset 8
	retq
.LBB109_3:                              # %cleanup.i.i.i
	.cfi_def_cfa_offset 32
.Ltmp351:
	movq	%rax, %r14
	movq	%rbx, %rdi
	callq	_ZN4core3ptr18real_drop_in_place17ha6fa1980cd7ce6c6E
	movq	%r14, %rdi
	callq	_Unwind_Resume
.Lfunc_end109:
	.size	_ZN5alloc4sync12Arc$LT$T$GT$9drop_slow17h11947988d5165e69E, .Lfunc_end109-_ZN5alloc4sync12Arc$LT$T$GT$9drop_slow17h11947988d5165e69E
	.cfi_endproc
	.section	.gcc_except_table,"a",@progbits
	.p2align	2
GCC_except_table109:
.Lexception38:
	.byte	255                     # @LPStart Encoding = omit
	.byte	255                     # @TType Encoding = omit
	.byte	1                       # Call site Encoding = uleb128
	.uleb128 .Lcst_end38-.Lcst_begin38
.Lcst_begin38:
	.uleb128 .Ltmp349-.Lfunc_begin38 # >> Call Site 1 <<
	.uleb128 .Ltmp350-.Ltmp349      #   Call between .Ltmp349 and .Ltmp350
	.uleb128 .Ltmp351-.Lfunc_begin38 #     jumps to .Ltmp351
	.byte	0                       #   On action: cleanup
	.uleb128 .Ltmp350-.Lfunc_begin38 # >> Call Site 2 <<
	.uleb128 .Lfunc_end109-.Ltmp350 #   Call between .Ltmp350 and .Lfunc_end109
	.byte	0                       #     has no landing pad
	.byte	0                       #   On action: cleanup
.Lcst_end38:
	.p2align	2
                                        # -- End function
	.text
	.p2align	4, 0x90         # -- Begin function _ZN5alloc4sync12Arc$LT$T$GT$9drop_slow17h27122a2f92d5b3e1E
	.type	_ZN5alloc4sync12Arc$LT$T$GT$9drop_slow17h27122a2f92d5b3e1E,@function
_ZN5alloc4sync12Arc$LT$T$GT$9drop_slow17h27122a2f92d5b3e1E: # @"_ZN5alloc4sync12Arc$LT$T$GT$9drop_slow17h27122a2f92d5b3e1E"
.Lfunc_begin39:
	.cfi_startproc
	.cfi_personality 3, rust_eh_personality
	.cfi_lsda 3, .Lexception39
# %bb.0:                                # %start
	pushq	%rbp
	.cfi_def_cfa_offset 16
	pushq	%r15
	.cfi_def_cfa_offset 24
	pushq	%r14
	.cfi_def_cfa_offset 32
	pushq	%r13
	.cfi_def_cfa_offset 40
	pushq	%r12
	.cfi_def_cfa_offset 48
	pushq	%rbx
	.cfi_def_cfa_offset 56
	subq	$72, %rsp
	.cfi_def_cfa_offset 128
	.cfi_offset %rbx, -56
	.cfi_offset %r12, -48
	.cfi_offset %r13, -40
	.cfi_offset %r14, -32
	.cfi_offset %r15, -24
	.cfi_offset %rbp, -16
	movq	%rdi, 32(%rsp)          # 8-byte Spill
	movq	(%rdi), %rcx
	leaq	16(%rcx), %rax
	movq	%rax, 8(%rsp)           # 8-byte Spill
	movq	%rcx, (%rsp)            # 8-byte Spill
	movq	24(%rcx), %rax
	testq	%rax, %rax
	je	.LBB110_7
# %bb.1:                                # %"_ZN85_$LT$core..slice..Iter$LT$T$GT$$u20$as$u20$core..iter..traits..iterator..Iterator$GT$4next17hff7c58754b4d39fcE.exit.preheader.i.i.i"
	movq	(%rsp), %rcx            # 8-byte Reload
	movq	16(%rcx), %r15
	leaq	(%rax,%rax,2), %rax
	leaq	(%r15,%rax,8), %rax
	movq	%rax, 40(%rsp)          # 8-byte Spill
	movq	_ZN83_$LT$tokio..loom..std..atomic_u32..AtomicU32$u20$as$u20$core..ops..deref..Deref$GT$5deref17h413be14b30362907E@GOTPCREL(%rip), %r12
	jmp	.LBB110_2
	.p2align	4, 0x90
.LBB110_6:                              # %bb3.loopexit.i.i.i
                                        #   in Loop: Header=BB110_2 Depth=1
	movq	48(%rsp), %r15          # 8-byte Reload
	cmpq	40(%rsp), %r15          # 8-byte Folded Reload
	je	.LBB110_7
.LBB110_2:                              # %"_ZN85_$LT$core..slice..Iter$LT$T$GT$$u20$as$u20$core..iter..traits..iterator..Iterator$GT$4next17hff7c58754b4d39fcE.exit.i.i.i"
                                        # =>This Loop Header: Depth=1
                                        #     Child Loop BB110_3 Depth 2
                                        #       Child Loop BB110_5 Depth 3
	leaq	24(%r15), %rax
	movq	%rax, 48(%rsp)          # 8-byte Spill
	leaq	16(%r15), %rbx
	leaq	20(%r15), %r13
.LBB110_3:                              # %bb8.i.i.i
                                        #   Parent Loop BB110_2 Depth=1
                                        # =>  This Loop Header: Depth=2
                                        #       Child Loop BB110_5 Depth 3
.Ltmp352:
	movq	%rbx, %rdi
	callq	*%r12
.Ltmp353:
# %bb.4:                                # %_32.i.i.noexc.i.i
                                        #   in Loop: Header=BB110_3 Depth=2
	movl	(%rax), %ebp
.Ltmp354:
	movq	%r13, %rdi
	callq	*_ZN5tokio4loom3std10atomic_u329AtomicU3211unsync_load17h136f72c9a15700c3E@GOTPCREL(%rip)
.Ltmp355:
	.p2align	4, 0x90
.LBB110_5:                              # %_114.i.i.noexc.i.i
                                        #   Parent Loop BB110_2 Depth=1
                                        #     Parent Loop BB110_3 Depth=2
                                        # =>    This Inner Loop Header: Depth=3
	cmpl	%eax, %ebp
	je	.LBB110_6
# %bb.13:                               # %bb5.i.i.i.i
                                        #   in Loop: Header=BB110_5 Depth=3
	movzbl	%bpl, %esi
	movq	8(%r15), %rdx
	cmpq	%rsi, %rdx
	jbe	.LBB110_18
# %bb.14:                               # %bb8.i7.i.i.i
                                        #   in Loop: Header=BB110_5 Depth=3
	movq	(%r15), %rax
	movq	(%rax,%rsi,8), %r14
.Ltmp358:
	movq	%rbx, %rdi
	callq	*%r12
.Ltmp359:
# %bb.15:                               # %_22.i.i.noexc.i.i
                                        #   in Loop: Header=BB110_5 Depth=3
	movq	%rax, %rcx
	leal	1(%rbp), %edx
	movl	%ebp, %eax
	lock		cmpxchgl	%edx, (%rcx)
	je	.LBB110_20
# %bb.16:                               # %bb13.i.i.i.i
                                        #   in Loop: Header=BB110_5 Depth=3
	pause
.Ltmp360:
	movq	%rbx, %rdi
	callq	*%r12
.Ltmp361:
# %bb.17:                               # %_3.i.i.noexc.i.i
                                        #   in Loop: Header=BB110_5 Depth=3
	movl	(%rax), %ebp
.Ltmp362:
	movq	%r13, %rdi
	callq	*_ZN5tokio4loom3std10atomic_u329AtomicU3211unsync_load17h136f72c9a15700c3E@GOTPCREL(%rip)
.Ltmp363:
	jmp	.LBB110_5
	.p2align	4, 0x90
.LBB110_20:                             # %"_ZN5tokio7runtime11thread_pool5queue5local14Queue$LT$T$GT$3pop17h76a98b4988aef1ffE.exit.i.i.i"
                                        #   in Loop: Header=BB110_3 Depth=2
	testq	%r14, %r14
	je	.LBB110_6
# %bb.21:                               # %bb2.i9.i.i.i
                                        #   in Loop: Header=BB110_3 Depth=2
.Ltmp365:
	movq	%r14, %rdi
	callq	*_ZN5tokio4task3raw7RawTask9drop_task17h698abef7adc201bbE@GOTPCREL(%rip)
.Ltmp366:
	jmp	.LBB110_3
.LBB110_7:                              # %bb14.preheader.i.i.i
	movq	(%rsp), %r12            # 8-byte Reload
	leaq	32(%r12), %r14
	leaq	64(%r12), %r13
	movq	_ZN87_$LT$tokio..loom..std..atomic_usize..AtomicUsize$u20$as$u20$core..ops..deref..Deref$GT$5deref17hbaf43d7bebd8d6d8E@GOTPCREL(%rip), %r15
	.p2align	4, 0x90
.LBB110_8:                              # %bb14.i.i.i
                                        # =>This Inner Loop Header: Depth=1
.Ltmp368:
	movq	%r13, %rdi
	callq	*%r15
.Ltmp369:
# %bb.9:                                # %_3.i.i.i.i.noexc.i.i
                                        #   in Loop: Header=BB110_8 Depth=1
	movq	(%rax), %rax
	cmpq	$2, %rax
	jb	.LBB110_30
# %bb.10:                               # %bb3.i.i.i.i
                                        #   in Loop: Header=BB110_8 Depth=1
	movq	(%r14), %rdi
	callq	*pthread_mutex_lock@GOTPCREL(%rip)
.Ltmp370:
